ARM GAS  C:\Users\fv-19\AppData\Local\Temp\ccD6R0Rc.s 			page 1


   1              		.cpu cortex-m7
   2              		.eabi_attribute 28, 1
   3              		.eabi_attribute 20, 1
   4              		.eabi_attribute 21, 1
   5              		.eabi_attribute 23, 3
   6              		.eabi_attribute 24, 1
   7              		.eabi_attribute 25, 1
   8              		.eabi_attribute 26, 1
   9              		.eabi_attribute 30, 2
  10              		.eabi_attribute 34, 1
  11              		.eabi_attribute 18, 4
  12              		.file	"NewExampleProject.cpp"
  13              		.text
  14              	.Ltext0:
  15              		.cfi_sections	.debug_frame
  16              		.section	.text._ZN5daisy6SwitchD2Ev,"axG",%progbits,_ZN5daisy6SwitchD5Ev,comdat
  17              		.align	1
  18              		.p2align 2,,3
  19              		.weak	_ZN5daisy6SwitchD2Ev
  20              		.arch armv7e-m
  21              		.syntax unified
  22              		.thumb
  23              		.thumb_func
  24              		.fpu fpv5-d16
  26              	_ZN5daisy6SwitchD2Ev:
  27              	.LVL0:
  28              	.LFB1654:
  29              		.file 1 "../../libDaisy/src/hid/switch.h"
   1:../../libDaisy/src/hid/switch.h **** #pragma once
   2:../../libDaisy/src/hid/switch.h **** #ifndef DSY_SWITCH_H
   3:../../libDaisy/src/hid/switch.h **** #define DSY_SWITCH_H
   4:../../libDaisy/src/hid/switch.h **** #include "daisy_core.h"
   5:../../libDaisy/src/hid/switch.h **** #include "per/gpio.h"
   6:../../libDaisy/src/hid/switch.h **** #include "sys/system.h"
   7:../../libDaisy/src/hid/switch.h **** 
   8:../../libDaisy/src/hid/switch.h **** namespace daisy
   9:../../libDaisy/src/hid/switch.h **** {
  10:../../libDaisy/src/hid/switch.h **** /** 
  11:../../libDaisy/src/hid/switch.h ****     Generic Class for handling momentary/latching switches \n 
  12:../../libDaisy/src/hid/switch.h ****     Inspired/influenced by Mutable Instruments (pichenettes) Switch classes
  13:../../libDaisy/src/hid/switch.h ****     @author Stephen Hensley
  14:../../libDaisy/src/hid/switch.h ****     @date December 2019
  15:../../libDaisy/src/hid/switch.h ****     @ingroup controls
  16:../../libDaisy/src/hid/switch.h **** */
  17:../../libDaisy/src/hid/switch.h **** class Switch
  18:../../libDaisy/src/hid/switch.h **** {
  19:../../libDaisy/src/hid/switch.h ****   public:
  20:../../libDaisy/src/hid/switch.h ****     /** Specifies the expected behavior of the switch */
  21:../../libDaisy/src/hid/switch.h ****     enum Type
  22:../../libDaisy/src/hid/switch.h ****     {
  23:../../libDaisy/src/hid/switch.h ****         TYPE_TOGGLE,    /**< & */
  24:../../libDaisy/src/hid/switch.h ****         TYPE_MOMENTARY, /**< & */
  25:../../libDaisy/src/hid/switch.h ****     };
  26:../../libDaisy/src/hid/switch.h ****     /** Specifies whether the pressed is HIGH or LOW. */
  27:../../libDaisy/src/hid/switch.h ****     enum Polarity
  28:../../libDaisy/src/hid/switch.h ****     {
  29:../../libDaisy/src/hid/switch.h ****         POLARITY_NORMAL,   /**< & */
ARM GAS  C:\Users\fv-19\AppData\Local\Temp\ccD6R0Rc.s 			page 2


  30:../../libDaisy/src/hid/switch.h ****         POLARITY_INVERTED, /**< & */
  31:../../libDaisy/src/hid/switch.h ****     };
  32:../../libDaisy/src/hid/switch.h **** 
  33:../../libDaisy/src/hid/switch.h ****     /** Specifies whether to use built-in Pull Up/Down resistors to hold button at a given state wh
  34:../../libDaisy/src/hid/switch.h ****     enum Pull
  35:../../libDaisy/src/hid/switch.h ****     {
  36:../../libDaisy/src/hid/switch.h ****         PULL_UP,   /**< & */
  37:../../libDaisy/src/hid/switch.h ****         PULL_DOWN, /**< & */
  38:../../libDaisy/src/hid/switch.h ****         PULL_NONE, /**< & */
  39:../../libDaisy/src/hid/switch.h ****     };
  40:../../libDaisy/src/hid/switch.h **** 
  41:../../libDaisy/src/hid/switch.h ****     Switch() {}
  42:../../libDaisy/src/hid/switch.h ****     ~Switch() {}
  30              		.loc 1 42 5 view -0
  31              		.cfi_startproc
  32              		@ args = 0, pretend = 0, frame = 0
  33              		@ frame_needed = 0, uses_anonymous_args = 0
  34              		@ link register save eliminated.
  35              		.loc 1 42 16 is_stmt 0 view .LVU1
  36 0000 7047     		bx	lr
  37              		.cfi_endproc
  38              	.LFE1654:
  40              		.weak	_ZN5daisy6SwitchD1Ev
  41              		.thumb_set _ZN5daisy6SwitchD1Ev,_ZN5daisy6SwitchD2Ev
  42 0002 00BF     		.section	.text._ZN5daisy9DaisySeedD2Ev,"axG",%progbits,_ZN5daisy9DaisySeedD5Ev,comdat
  43              		.align	1
  44              		.p2align 2,,3
  45              		.weak	_ZN5daisy9DaisySeedD2Ev
  46              		.syntax unified
  47              		.thumb
  48              		.thumb_func
  49              		.fpu fpv5-d16
  51              	_ZN5daisy9DaisySeedD2Ev:
  52              	.LVL1:
  53              	.LFB2570:
  54              		.file 2 "../../libDaisy/src/daisy_seed.h"
   1:../../libDaisy/src/daisy_seed.h **** #pragma once
   2:../../libDaisy/src/daisy_seed.h **** #ifndef DSY_SEED_H
   3:../../libDaisy/src/daisy_seed.h **** #define DSY_SEED_H
   4:../../libDaisy/src/daisy_seed.h **** 
   5:../../libDaisy/src/daisy_seed.h **** #include "daisy.h"
   6:../../libDaisy/src/daisy_seed.h **** 
   7:../../libDaisy/src/daisy_seed.h **** //Uncomment this out if you're still using the rev2 hardware
   8:../../libDaisy/src/daisy_seed.h **** //#define SEED_REV2
   9:../../libDaisy/src/daisy_seed.h **** 
  10:../../libDaisy/src/daisy_seed.h **** namespace daisy
  11:../../libDaisy/src/daisy_seed.h **** {
  12:../../libDaisy/src/daisy_seed.h **** /**
  13:../../libDaisy/src/daisy_seed.h ****    @brief This is the higher-level interface for the Daisy board. \n 
  14:../../libDaisy/src/daisy_seed.h ****     All basic peripheral configuration/initialization is setup here. \n
  15:../../libDaisy/src/daisy_seed.h **** 
  16:../../libDaisy/src/daisy_seed.h ****    @ingroup boards
  17:../../libDaisy/src/daisy_seed.h **** */
  18:../../libDaisy/src/daisy_seed.h **** class DaisySeed
  19:../../libDaisy/src/daisy_seed.h **** {
  20:../../libDaisy/src/daisy_seed.h ****   public:
  21:../../libDaisy/src/daisy_seed.h ****     DaisySeed() {}
ARM GAS  C:\Users\fv-19\AppData\Local\Temp\ccD6R0Rc.s 			page 3


  22:../../libDaisy/src/daisy_seed.h ****     ~DaisySeed() {}
  55              		.loc 2 22 5 is_stmt 1 view -0
  56              		.cfi_startproc
  57              		@ args = 0, pretend = 0, frame = 0
  58              		@ frame_needed = 0, uses_anonymous_args = 0
  59              		@ link register save eliminated.
  60              	.LBB1480:
  61              	.LBI1480:
  62              		.file 3 "../../libDaisy/src/sys/system.h"
   1:../../libDaisy/src/sys/system.h **** #ifndef DSY_SYSTEM_H
   2:../../libDaisy/src/sys/system.h **** #define DSY_SYSTEM_H
   3:../../libDaisy/src/sys/system.h **** 
   4:../../libDaisy/src/sys/system.h **** #ifndef UNIT_TEST // for unit tests, a dummy implementation is provided below
   5:../../libDaisy/src/sys/system.h **** 
   6:../../libDaisy/src/sys/system.h **** #include <cstdint>
   7:../../libDaisy/src/sys/system.h **** #include "per/tim.h"
   8:../../libDaisy/src/sys/system.h **** 
   9:../../libDaisy/src/sys/system.h **** namespace daisy
  10:../../libDaisy/src/sys/system.h **** {
  11:../../libDaisy/src/sys/system.h **** /** A handle for interacting with the Core System.
  12:../../libDaisy/src/sys/system.h ****  ** This includes the Clock tree, MPU, global DMA initialization,
  13:../../libDaisy/src/sys/system.h ****  ** cache handling, and any other necessary global initiailzation
  14:../../libDaisy/src/sys/system.h ****  **
  15:../../libDaisy/src/sys/system.h ****  ** @author shensley
  16:../../libDaisy/src/sys/system.h ****  ** @ingroup system
  17:../../libDaisy/src/sys/system.h ****  */
  18:../../libDaisy/src/sys/system.h **** class System
  19:../../libDaisy/src/sys/system.h **** {
  20:../../libDaisy/src/sys/system.h ****   public:
  21:../../libDaisy/src/sys/system.h ****     /** Contains settings for initializing the System */
  22:../../libDaisy/src/sys/system.h ****     struct Config
  23:../../libDaisy/src/sys/system.h ****     {
  24:../../libDaisy/src/sys/system.h ****         /** Specifies the system clock frequency that feeds APB/AHB clocks, etc. */
  25:../../libDaisy/src/sys/system.h ****         enum class SysClkFreq
  26:../../libDaisy/src/sys/system.h ****         {
  27:../../libDaisy/src/sys/system.h ****             FREQ_400MHZ,
  28:../../libDaisy/src/sys/system.h ****             FREQ_480MHZ,
  29:../../libDaisy/src/sys/system.h ****         };
  30:../../libDaisy/src/sys/system.h **** 
  31:../../libDaisy/src/sys/system.h ****         /** Method to call on the struct to set to defaults
  32:../../libDaisy/src/sys/system.h ****          ** CPU Freq set to 400MHz
  33:../../libDaisy/src/sys/system.h ****          ** Cache Enabled
  34:../../libDaisy/src/sys/system.h ****          ** */
  35:../../libDaisy/src/sys/system.h ****         void Defaults()
  36:../../libDaisy/src/sys/system.h ****         {
  37:../../libDaisy/src/sys/system.h ****             cpu_freq    = SysClkFreq::FREQ_400MHZ;
  38:../../libDaisy/src/sys/system.h ****             use_dcache  = true;
  39:../../libDaisy/src/sys/system.h ****             use_icache  = true;
  40:../../libDaisy/src/sys/system.h ****             skip_clocks = false;
  41:../../libDaisy/src/sys/system.h ****         }
  42:../../libDaisy/src/sys/system.h **** 
  43:../../libDaisy/src/sys/system.h ****         /** Method to call on the struct to set to boost mode:
  44:../../libDaisy/src/sys/system.h ****          ** CPU Freq set to 480MHz
  45:../../libDaisy/src/sys/system.h ****          ** Cache Enabled
  46:../../libDaisy/src/sys/system.h ****          ** */
  47:../../libDaisy/src/sys/system.h ****         void Boost()
  48:../../libDaisy/src/sys/system.h ****         {
ARM GAS  C:\Users\fv-19\AppData\Local\Temp\ccD6R0Rc.s 			page 4


  49:../../libDaisy/src/sys/system.h ****             cpu_freq    = SysClkFreq::FREQ_480MHZ;
  50:../../libDaisy/src/sys/system.h ****             use_dcache  = true;
  51:../../libDaisy/src/sys/system.h ****             use_icache  = true;
  52:../../libDaisy/src/sys/system.h ****             skip_clocks = false;
  53:../../libDaisy/src/sys/system.h ****         }
  54:../../libDaisy/src/sys/system.h **** 
  55:../../libDaisy/src/sys/system.h ****         SysClkFreq cpu_freq;
  56:../../libDaisy/src/sys/system.h ****         bool       use_dcache;
  57:../../libDaisy/src/sys/system.h ****         bool       use_icache;
  58:../../libDaisy/src/sys/system.h ****         bool       skip_clocks;
  59:../../libDaisy/src/sys/system.h ****     };
  60:../../libDaisy/src/sys/system.h **** 
  61:../../libDaisy/src/sys/system.h ****     /** Describes the different regions of memory available to the Daisy */
  62:../../libDaisy/src/sys/system.h ****     enum MemoryRegion
  63:../../libDaisy/src/sys/system.h ****     {
  64:../../libDaisy/src/sys/system.h ****         INTERNAL_FLASH = 0,
  65:../../libDaisy/src/sys/system.h ****         ITCMRAM,
  66:../../libDaisy/src/sys/system.h ****         DTCMRAM,
  67:../../libDaisy/src/sys/system.h ****         SRAM_D1,
  68:../../libDaisy/src/sys/system.h ****         SRAM_D2,
  69:../../libDaisy/src/sys/system.h ****         SRAM_D3,
  70:../../libDaisy/src/sys/system.h ****         SDRAM,
  71:../../libDaisy/src/sys/system.h ****         QSPI,
  72:../../libDaisy/src/sys/system.h ****         INVALID_ADDRESS,
  73:../../libDaisy/src/sys/system.h ****     };
  74:../../libDaisy/src/sys/system.h **** 
  75:../../libDaisy/src/sys/system.h ****     /** Bootloader struct for controlling bootloading parameters */
  76:../../libDaisy/src/sys/system.h ****     struct BootInfo
  77:../../libDaisy/src/sys/system.h ****     {
  78:../../libDaisy/src/sys/system.h ****         enum class Type : uint32_t
  79:../../libDaisy/src/sys/system.h ****         {
  80:../../libDaisy/src/sys/system.h ****             INVALID      = 0x00000000,
  81:../../libDaisy/src/sys/system.h ****             JUMP         = 0xDEADBEEF,
  82:../../libDaisy/src/sys/system.h ****             SKIP_TIMEOUT = 0x5AFEB007,
  83:../../libDaisy/src/sys/system.h ****             INF_TIMEOUT  = 0xB0074EFA,
  84:../../libDaisy/src/sys/system.h ****         } status;
  85:../../libDaisy/src/sys/system.h ****         uint32_t data;
  86:../../libDaisy/src/sys/system.h ****         enum class Version : uint32_t
  87:../../libDaisy/src/sys/system.h ****         {
  88:../../libDaisy/src/sys/system.h ****             LT_v6_0 = 0, // Less than v6.0
  89:../../libDaisy/src/sys/system.h ****             NONE,        // No bootloader present
  90:../../libDaisy/src/sys/system.h ****             v6_0,        // v6.0
  91:../../libDaisy/src/sys/system.h ****             v6_1,        // v6.1 or greater
  92:../../libDaisy/src/sys/system.h ****             LAST
  93:../../libDaisy/src/sys/system.h ****         } version;
  94:../../libDaisy/src/sys/system.h ****     };
  95:../../libDaisy/src/sys/system.h **** 
  96:../../libDaisy/src/sys/system.h ****     System() {}
  97:../../libDaisy/src/sys/system.h ****     ~System() {}
  63              		.loc 3 97 5 view .LVU3
  64              		.loc 3 97 5 is_stmt 0 view .LVU4
  65              	.LBE1480:
  66              	.LBB1481:
  67              	.LBI1481:
  68              		.file 4 "../../libDaisy/src/hid/usb.h"
   1:../../libDaisy/src/hid/usb.h **** #pragma once
   2:../../libDaisy/src/hid/usb.h **** #ifndef DSY_HID_USB_H
ARM GAS  C:\Users\fv-19\AppData\Local\Temp\ccD6R0Rc.s 			page 5


   3:../../libDaisy/src/hid/usb.h **** #define DSY_HID_USB_H
   4:../../libDaisy/src/hid/usb.h **** #include <stdint.h>
   5:../../libDaisy/src/hid/usb.h **** #include <stdlib.h>
   6:../../libDaisy/src/hid/usb.h **** 
   7:../../libDaisy/src/hid/usb.h **** namespace daisy
   8:../../libDaisy/src/hid/usb.h **** /** @addtogroup human_interface
   9:../../libDaisy/src/hid/usb.h ****     @{
  10:../../libDaisy/src/hid/usb.h **** */
  11:../../libDaisy/src/hid/usb.h **** 
  12:../../libDaisy/src/hid/usb.h **** {
  13:../../libDaisy/src/hid/usb.h **** /** 
  14:../../libDaisy/src/hid/usb.h ****     @brief Interface for initializing and using the USB Peripherals on the daisy
  15:../../libDaisy/src/hid/usb.h ****     @author Stephen Hensley
  16:../../libDaisy/src/hid/usb.h ****     @date December 2019
  17:../../libDaisy/src/hid/usb.h **** */
  18:../../libDaisy/src/hid/usb.h **** class UsbHandle
  19:../../libDaisy/src/hid/usb.h **** {
  20:../../libDaisy/src/hid/usb.h ****   public:
  21:../../libDaisy/src/hid/usb.h ****     /** Return values for USBHandle Functions */
  22:../../libDaisy/src/hid/usb.h ****     enum class Result
  23:../../libDaisy/src/hid/usb.h ****     {
  24:../../libDaisy/src/hid/usb.h ****         OK,
  25:../../libDaisy/src/hid/usb.h ****         ERR,
  26:../../libDaisy/src/hid/usb.h ****     };
  27:../../libDaisy/src/hid/usb.h **** 
  28:../../libDaisy/src/hid/usb.h ****     /** Specified which of the two USB Peripherals to initialize. */
  29:../../libDaisy/src/hid/usb.h ****     enum UsbPeriph
  30:../../libDaisy/src/hid/usb.h ****     {
  31:../../libDaisy/src/hid/usb.h ****         FS_INTERNAL, /**< Internal pin */
  32:../../libDaisy/src/hid/usb.h ****         FS_EXTERNAL, /**< FS External D+ pin is Pin 38 (GPIO32). FS External D- pin is Pin 37 (GPIO
  33:../../libDaisy/src/hid/usb.h ****         FS_BOTH,     /**< Both */
  34:../../libDaisy/src/hid/usb.h ****     };
  35:../../libDaisy/src/hid/usb.h **** 
  36:../../libDaisy/src/hid/usb.h **** 
  37:../../libDaisy/src/hid/usb.h ****     /** Function called upon reception of a buffer */
  38:../../libDaisy/src/hid/usb.h ****     typedef void (*ReceiveCallback)(uint8_t* buff, uint32_t* len);
  39:../../libDaisy/src/hid/usb.h **** 
  40:../../libDaisy/src/hid/usb.h ****     UsbHandle() {}
  41:../../libDaisy/src/hid/usb.h **** 
  42:../../libDaisy/src/hid/usb.h ****     ~UsbHandle() {}
  69              		.loc 4 42 5 is_stmt 1 view .LVU5
  70              		.loc 4 42 5 is_stmt 0 view .LVU6
  71              	.LBE1481:
  72              	.LBB1482:
  73              	.LBI1482:
  74              		.file 5 "../../libDaisy/src/per/adc.h"
   1:../../libDaisy/src/per/adc.h **** #pragma once
   2:../../libDaisy/src/per/adc.h **** #ifndef DSY_ADC_H
   3:../../libDaisy/src/per/adc.h **** #define DSY_ADC_H /**< Macro */
   4:../../libDaisy/src/per/adc.h **** #include <stdint.h>
   5:../../libDaisy/src/per/adc.h **** #include <stdlib.h>
   6:../../libDaisy/src/per/adc.h **** #include "daisy_core.h"
   7:../../libDaisy/src/per/adc.h **** #include "per/gpio.h"
   8:../../libDaisy/src/per/adc.h **** 
   9:../../libDaisy/src/per/adc.h **** #define DSY_ADC_MAX_CHANNELS 16 /**< Maximum number of ADC channels */
  10:../../libDaisy/src/per/adc.h **** 
  11:../../libDaisy/src/per/adc.h **** namespace daisy
ARM GAS  C:\Users\fv-19\AppData\Local\Temp\ccD6R0Rc.s 			page 6


  12:../../libDaisy/src/per/adc.h **** {
  13:../../libDaisy/src/per/adc.h **** /** @addtogroup per_analog
  14:../../libDaisy/src/per/adc.h ****     @{
  15:../../libDaisy/src/per/adc.h **** */
  16:../../libDaisy/src/per/adc.h **** 
  17:../../libDaisy/src/per/adc.h **** /* While there may not be many configuration options here,
  18:../../libDaisy/src/per/adc.h **** using a struct like this allows us to add more configuration
  19:../../libDaisy/src/per/adc.h **** later without breaking existing functionality.
  20:../../libDaisy/src/per/adc.h **** */
  21:../../libDaisy/src/per/adc.h **** 
  22:../../libDaisy/src/per/adc.h **** /** @brief   Configuration Structure for an ADC Channel 
  23:../../libDaisy/src/per/adc.h ****  *  @details This can be used to configure a a single input, 
  24:../../libDaisy/src/per/adc.h ****  *           or a multiplexed input, allowing up to 8 inputs on 
  25:../../libDaisy/src/per/adc.h ****  *           one channel.
  26:../../libDaisy/src/per/adc.h ****  *  @note    Sharing data lines to multiple muxes _is_ possible, but
  27:../../libDaisy/src/per/adc.h ****  *           each channel sharing data lines must be set to the maximum
  28:../../libDaisy/src/per/adc.h ****  *           number of channels, even if some multiplexers have fewer
  29:../../libDaisy/src/per/adc.h ****  *           inputs connected.
  30:../../libDaisy/src/per/adc.h **** */
  31:../../libDaisy/src/per/adc.h **** struct AdcChannelConfig
  32:../../libDaisy/src/per/adc.h **** {
  33:../../libDaisy/src/per/adc.h ****     /** Which pin to use for multiplexing */
  34:../../libDaisy/src/per/adc.h ****     enum MuxPin
  35:../../libDaisy/src/per/adc.h ****     {
  36:../../libDaisy/src/per/adc.h ****         MUX_SEL_0,    /**< & */
  37:../../libDaisy/src/per/adc.h ****         MUX_SEL_1,    /**< & */
  38:../../libDaisy/src/per/adc.h ****         MUX_SEL_2,    /**< & */
  39:../../libDaisy/src/per/adc.h ****         MUX_SEL_LAST, /**< & */
  40:../../libDaisy/src/per/adc.h ****     };
  41:../../libDaisy/src/per/adc.h **** 
  42:../../libDaisy/src/per/adc.h ****     /** \brief per channel conversion speed added to fixed time based on bitdepth, etc. */
  43:../../libDaisy/src/per/adc.h ****     enum ConversionSpeed
  44:../../libDaisy/src/per/adc.h ****     {
  45:../../libDaisy/src/per/adc.h ****         SPEED_1CYCLES_5,
  46:../../libDaisy/src/per/adc.h ****         SPEED_2CYCLES_5,
  47:../../libDaisy/src/per/adc.h ****         SPEED_8CYCLES_5,
  48:../../libDaisy/src/per/adc.h ****         SPEED_16CYCLES_5,
  49:../../libDaisy/src/per/adc.h ****         SPEED_32CYCLES_5,
  50:../../libDaisy/src/per/adc.h ****         SPEED_64CYCLES_5,
  51:../../libDaisy/src/per/adc.h ****         SPEED_387CYCLES_5,
  52:../../libDaisy/src/per/adc.h ****         SPEED_810CYCLES_5,
  53:../../libDaisy/src/per/adc.h ****     };
  54:../../libDaisy/src/per/adc.h **** 
  55:../../libDaisy/src/per/adc.h ****     /** Initializes a single ADC pin as an ADC. 
  56:../../libDaisy/src/per/adc.h ****     \param pin Pin to init.
  57:../../libDaisy/src/per/adc.h ****     \param speed conversion speed for this pin defaults to 8.5 cycles
  58:../../libDaisy/src/per/adc.h ****      */
  59:../../libDaisy/src/per/adc.h ****     void InitSingle(dsy_gpio_pin pin, ConversionSpeed speed = SPEED_8CYCLES_5);
  60:../../libDaisy/src/per/adc.h **** 
  61:../../libDaisy/src/per/adc.h ****     /** 
  62:../../libDaisy/src/per/adc.h ****     Initializes a single ADC pin as a Multiplexed ADC.
  63:../../libDaisy/src/per/adc.h ****     Requires a CD405X Multiplexer connected to the pin.
  64:../../libDaisy/src/per/adc.h ****     You only need to supply the mux pins that are required,
  65:../../libDaisy/src/per/adc.h ****     e.g. a 4052 mux would only require mux_0 and mux_1.
  66:../../libDaisy/src/per/adc.h ****     Internal Callbacks handle the pin addressing.
  67:../../libDaisy/src/per/adc.h ****     \param adc_pin &
  68:../../libDaisy/src/per/adc.h ****     \param mux_channels must be 1-8
ARM GAS  C:\Users\fv-19\AppData\Local\Temp\ccD6R0Rc.s 			page 7


  69:../../libDaisy/src/per/adc.h ****     \param mux_0 First mux pin
  70:../../libDaisy/src/per/adc.h ****     \param mux_1 Second mux pin
  71:../../libDaisy/src/per/adc.h ****     \param mux_2 Third mux pin
  72:../../libDaisy/src/per/adc.h ****     \param speed conversion speed for this pin defaults to 8.5 cycles
  73:../../libDaisy/src/per/adc.h ****     */
  74:../../libDaisy/src/per/adc.h ****     void InitMux(dsy_gpio_pin    adc_pin,
  75:../../libDaisy/src/per/adc.h ****                  size_t          mux_channels,
  76:../../libDaisy/src/per/adc.h ****                  dsy_gpio_pin    mux_0,
  77:../../libDaisy/src/per/adc.h ****                  dsy_gpio_pin    mux_1 = {DSY_GPIOX, 0},
  78:../../libDaisy/src/per/adc.h ****                  dsy_gpio_pin    mux_2 = {DSY_GPIOX, 0},
  79:../../libDaisy/src/per/adc.h ****                  ConversionSpeed speed = SPEED_8CYCLES_5);
  80:../../libDaisy/src/per/adc.h **** 
  81:../../libDaisy/src/per/adc.h ****     dsy_gpio        pin_;                   /**< & */
  82:../../libDaisy/src/per/adc.h ****     dsy_gpio        mux_pin_[MUX_SEL_LAST]; /**< & */
  83:../../libDaisy/src/per/adc.h ****     uint8_t         mux_channels_;          /**< & */
  84:../../libDaisy/src/per/adc.h ****     ConversionSpeed speed_;
  85:../../libDaisy/src/per/adc.h **** };
  86:../../libDaisy/src/per/adc.h **** 
  87:../../libDaisy/src/per/adc.h **** /**
  88:../../libDaisy/src/per/adc.h ****    @brief Handler for analog to digital conversion
  89:../../libDaisy/src/per/adc.h **** */
  90:../../libDaisy/src/per/adc.h **** class AdcHandle
  91:../../libDaisy/src/per/adc.h **** {
  92:../../libDaisy/src/per/adc.h ****   public:
  93:../../libDaisy/src/per/adc.h ****     /** Supported oversampling amounts */
  94:../../libDaisy/src/per/adc.h ****     enum OverSampling
  95:../../libDaisy/src/per/adc.h ****     {
  96:../../libDaisy/src/per/adc.h ****         OVS_NONE, /**< & */
  97:../../libDaisy/src/per/adc.h ****         OVS_4,    /**< & */
  98:../../libDaisy/src/per/adc.h ****         OVS_8,    /**< & */
  99:../../libDaisy/src/per/adc.h ****         OVS_16,   /**< & */
 100:../../libDaisy/src/per/adc.h ****         OVS_32,   /**< & */
 101:../../libDaisy/src/per/adc.h ****         OVS_64,   /**< & */
 102:../../libDaisy/src/per/adc.h ****         OVS_128,  /**< & */
 103:../../libDaisy/src/per/adc.h ****         OVS_256,  /**< & */
 104:../../libDaisy/src/per/adc.h ****         OVS_512,  /**< & */
 105:../../libDaisy/src/per/adc.h ****         OVS_1024, /**< & */
 106:../../libDaisy/src/per/adc.h ****         OVS_LAST, /**< & */
 107:../../libDaisy/src/per/adc.h ****     };
 108:../../libDaisy/src/per/adc.h **** 
 109:../../libDaisy/src/per/adc.h ****     AdcHandle() {}
 110:../../libDaisy/src/per/adc.h ****     ~AdcHandle() {}
  75              		.loc 5 110 5 is_stmt 1 view .LVU7
  76              		.loc 5 110 5 is_stmt 0 view .LVU8
  77              	.LBE1482:
  78              	.LBB1483:
  79              	.LBI1483:
  80              		.file 6 "../../libDaisy/src/hid/audio.h"
   1:../../libDaisy/src/hid/audio.h **** #ifndef DSY_AUDIO_H
   2:../../libDaisy/src/hid/audio.h **** #define DSY_AUDIO_H /**< & */
   3:../../libDaisy/src/hid/audio.h **** 
   4:../../libDaisy/src/hid/audio.h **** #include "per/sai.h"
   5:../../libDaisy/src/hid/audio.h **** 
   6:../../libDaisy/src/hid/audio.h **** namespace daisy
   7:../../libDaisy/src/hid/audio.h **** {
   8:../../libDaisy/src/hid/audio.h **** /** @brief Audio Engine Handle
   9:../../libDaisy/src/hid/audio.h ****  *  @ingroup audio 
ARM GAS  C:\Users\fv-19\AppData\Local\Temp\ccD6R0Rc.s 			page 8


  10:../../libDaisy/src/hid/audio.h ****  *  @details This class allows for higher level access to an audio engine.
  11:../../libDaisy/src/hid/audio.h ****  *           If you're using a SOM like the DaisySeed or DaisyPatchSM (or any 
  12:../../libDaisy/src/hid/audio.h ****  *            board that includes one of those objects) then the intialization
  13:../../libDaisy/src/hid/audio.h ****  *            is already taken  care of.
  14:../../libDaisy/src/hid/audio.h ****  *           If you're setting up your own custom hardware, or need to make changes
  15:../../libDaisy/src/hid/audio.h ****  *           you will have to take the following steps:
  16:../../libDaisy/src/hid/audio.h ****  *             1. Create and Initialize an SaiHandle or two depending on your requirements
  17:../../libDaisy/src/hid/audio.h ****  *             2. Initialize the Audio Handle with the desired settings and the Initialized SaiHand
  18:../../libDaisy/src/hid/audio.h ****  *             3. If the connected codec requires special configuration or initialization, do so
  19:../../libDaisy/src/hid/audio.h ****  *             4. Write a callback method using either the AudioCallback or the InterleavingAudioCa
  20:../../libDaisy/src/hid/audio.h ****  *             5. Start the Audio using one of the StartAudio function
  21:../../libDaisy/src/hid/audio.h ****  */
  22:../../libDaisy/src/hid/audio.h **** class AudioHandle
  23:../../libDaisy/src/hid/audio.h **** {
  24:../../libDaisy/src/hid/audio.h ****   public:
  25:../../libDaisy/src/hid/audio.h ****     /** Manually configurable details about the Audio Engine */
  26:../../libDaisy/src/hid/audio.h ****     /** TODO: Figure out how to get samplerate in here. */
  27:../../libDaisy/src/hid/audio.h ****     struct Config
  28:../../libDaisy/src/hid/audio.h ****     {
  29:../../libDaisy/src/hid/audio.h ****         /** number of samples to process per callback */
  30:../../libDaisy/src/hid/audio.h ****         size_t blocksize = 48;
  31:../../libDaisy/src/hid/audio.h **** 
  32:../../libDaisy/src/hid/audio.h ****         /**< Sample rate of audio */
  33:../../libDaisy/src/hid/audio.h ****         SaiHandle::Config::SampleRate samplerate
  34:../../libDaisy/src/hid/audio.h ****             = SaiHandle::Config::SampleRate::SAI_48KHZ;
  35:../../libDaisy/src/hid/audio.h **** 
  36:../../libDaisy/src/hid/audio.h ****         /** factor for adjustment before and after callback for hardware that may have extra headro
  37:../../libDaisy/src/hid/audio.h ****         float postgain = 1.f;
  38:../../libDaisy/src/hid/audio.h **** 
  39:../../libDaisy/src/hid/audio.h ****         /** factor for additional one-sided compensation to audio path for hardware that may
  40:../../libDaisy/src/hid/audio.h ****          *  have unequal input/output ranges
  41:../../libDaisy/src/hid/audio.h ****          */
  42:../../libDaisy/src/hid/audio.h ****         float output_compensation = 1.f;
  43:../../libDaisy/src/hid/audio.h ****     };
  44:../../libDaisy/src/hid/audio.h **** 
  45:../../libDaisy/src/hid/audio.h ****     enum class Result
  46:../../libDaisy/src/hid/audio.h ****     {
  47:../../libDaisy/src/hid/audio.h ****         OK,
  48:../../libDaisy/src/hid/audio.h ****         ERR,
  49:../../libDaisy/src/hid/audio.h ****     };
  50:../../libDaisy/src/hid/audio.h **** 
  51:../../libDaisy/src/hid/audio.h ****     /** Non-Interleaving input buffer
  52:../../libDaisy/src/hid/audio.h ****      * Buffer arranged by float[chn][sample] 
  53:../../libDaisy/src/hid/audio.h ****      * const so that the user can't modify the input
  54:../../libDaisy/src/hid/audio.h ****      */
  55:../../libDaisy/src/hid/audio.h ****     typedef const float* const* InputBuffer;
  56:../../libDaisy/src/hid/audio.h **** 
  57:../../libDaisy/src/hid/audio.h ****     /** Non-Interleaving output buffer
  58:../../libDaisy/src/hid/audio.h ****      * Arranged by float[chn][sample] 
  59:../../libDaisy/src/hid/audio.h ****      */
  60:../../libDaisy/src/hid/audio.h ****     typedef float** OutputBuffer;
  61:../../libDaisy/src/hid/audio.h **** 
  62:../../libDaisy/src/hid/audio.h ****     /** Type for a Non-Interleaving audio callback 
  63:../../libDaisy/src/hid/audio.h ****      * Non-Interleaving audio callbacks in daisy will be of this type
  64:../../libDaisy/src/hid/audio.h ****      */
  65:../../libDaisy/src/hid/audio.h ****     typedef void (*AudioCallback)(InputBuffer  in,
  66:../../libDaisy/src/hid/audio.h ****                                   OutputBuffer out,
ARM GAS  C:\Users\fv-19\AppData\Local\Temp\ccD6R0Rc.s 			page 9


  67:../../libDaisy/src/hid/audio.h ****                                   size_t       size);
  68:../../libDaisy/src/hid/audio.h **** 
  69:../../libDaisy/src/hid/audio.h ****     /** Interleaving Input buffer
  70:../../libDaisy/src/hid/audio.h ****      ** audio is prepared as { L0, R0, L1, R1, . . . LN, RN }]
  71:../../libDaisy/src/hid/audio.h ****      ** this is const, as the user shouldn't modify it
  72:../../libDaisy/src/hid/audio.h ****     */
  73:../../libDaisy/src/hid/audio.h ****     typedef const float* InterleavingInputBuffer;
  74:../../libDaisy/src/hid/audio.h **** 
  75:../../libDaisy/src/hid/audio.h ****     /** Interleaving Output buffer 
  76:../../libDaisy/src/hid/audio.h ****      ** audio is prepared as { L0, R0, L1, R1, . . . LN, RN }
  77:../../libDaisy/src/hid/audio.h ****     */
  78:../../libDaisy/src/hid/audio.h ****     typedef float* InterleavingOutputBuffer;
  79:../../libDaisy/src/hid/audio.h **** 
  80:../../libDaisy/src/hid/audio.h ****     /** Interleaving Audio Callback 
  81:../../libDaisy/src/hid/audio.h ****      * Interleaving audio callbacks in daisy must be of this type
  82:../../libDaisy/src/hid/audio.h ****      */
  83:../../libDaisy/src/hid/audio.h ****     typedef void (*InterleavingAudioCallback)(InterleavingInputBuffer  in,
  84:../../libDaisy/src/hid/audio.h ****                                               InterleavingOutputBuffer out,
  85:../../libDaisy/src/hid/audio.h ****                                               size_t                   size);
  86:../../libDaisy/src/hid/audio.h **** 
  87:../../libDaisy/src/hid/audio.h ****     AudioHandle() : pimpl_(nullptr) {}
  88:../../libDaisy/src/hid/audio.h ****     ~AudioHandle() {}
  81              		.loc 6 88 5 is_stmt 1 view .LVU9
  82              		.loc 6 88 5 is_stmt 0 view .LVU10
  83              	.LBE1483:
  84              		.loc 2 22 19 view .LVU11
  85 0000 7047     		bx	lr
  86              		.cfi_endproc
  87              	.LFE2570:
  89              		.weak	_ZN5daisy9DaisySeedD1Ev
  90              		.thumb_set _ZN5daisy9DaisySeedD1Ev,_ZN5daisy9DaisySeedD2Ev
  91 0002 00BF     		.section	.text._ZN6Biquad10resetCoeffEv,"axG",%progbits,_ZN6Biquad10resetCoeffEv,comdat
  92              		.align	1
  93              		.p2align 2,,3
  94              		.weak	_ZN6Biquad10resetCoeffEv
  95              		.syntax unified
  96              		.thumb
  97              		.thumb_func
  98              		.fpu fpv5-d16
 100              	_ZN6Biquad10resetCoeffEv:
 101              	.LVL2:
 102              	.LFB4763:
 103              		.file 7 "DSP/biquad.h"
   1:DSP/biquad.h  **** #include <vector>
   2:DSP/biquad.h  **** #include <string>
   3:DSP/biquad.h  **** using std::string;
   4:DSP/biquad.h  **** using std::vector;
   5:DSP/biquad.h  **** 
   6:DSP/biquad.h  **** // =============================================================================
   7:DSP/biquad.h  **** // Biquad  Class
   8:DSP/biquad.h  **** // used to implement every kinf of second order filter, sample by sample reading
   9:DSP/biquad.h  **** // =============================================================================
  10:DSP/biquad.h  **** 
  11:DSP/biquad.h  **** 
  12:DSP/biquad.h  **** class Biquad
  13:DSP/biquad.h  **** {
  14:DSP/biquad.h  **** public:
ARM GAS  C:\Users\fv-19\AppData\Local\Temp\ccD6R0Rc.s 			page 10


  15:DSP/biquad.h  ****     
  16:DSP/biquad.h  ****     Biquad() {
  17:DSP/biquad.h  ****         aCoeffVector = { 0,0,0 };
  18:DSP/biquad.h  ****         bCoeffVector = { 0,0,0 };
  19:DSP/biquad.h  ****         form = "canonical";
  20:DSP/biquad.h  **** 
  21:DSP/biquad.h  ****     }
  22:DSP/biquad.h  ****     Biquad(const string f):form(f)
  23:DSP/biquad.h  ****     {
  24:DSP/biquad.h  ****         aCoeffVector = { 0,0,0 };
  25:DSP/biquad.h  ****         bCoeffVector = { 0,0,0 };
  26:DSP/biquad.h  ****     }
  27:DSP/biquad.h  ****     Biquad(vector<float> aCoeff, vector<float> bCoeff, int numCoeff, string f = "direct") :
  28:DSP/biquad.h  ****         aCoeffVector(aCoeff), bCoeffVector(bCoeff), form(f) { }
  29:DSP/biquad.h  ****     ~Biquad() {}
  30:DSP/biquad.h  **** 
  31:DSP/biquad.h  ****     void updateParameters(vector<float> aCoeff, vector<float> bCoeff)
  32:DSP/biquad.h  ****     {
  33:DSP/biquad.h  ****         // updates the biquad class a and b  parameters 
  34:DSP/biquad.h  ****         for (int i = 0; i < 3; ++i)
  35:DSP/biquad.h  ****         {
  36:DSP/biquad.h  ****             aCoeffVector[i] = aCoeff[i];
  37:DSP/biquad.h  ****             bCoeffVector[i] = bCoeff[i];
  38:DSP/biquad.h  ****         }
  39:DSP/biquad.h  ****     }
  40:DSP/biquad.h  ****     
  41:DSP/biquad.h  ****     virtual void resetCoeff()
 104              		.loc 7 41 18 is_stmt 1 view -0
 105              		.cfi_startproc
 106              		@ args = 0, pretend = 0, frame = 0
 107              		@ frame_needed = 0, uses_anonymous_args = 0
  42:DSP/biquad.h  ****     {
  43:DSP/biquad.h  ****         // flushes all the vectors values, resets to 0
  44:DSP/biquad.h  ****         for (auto i = 0; i < aCoeffVector.size(); ++i)
 108              		.loc 7 44 9 view .LVU13
 109              	.LBB1496:
 110              		.loc 7 44 28 view .LVU14
 111              	.LBB1497:
 112              	.LBI1497:
 113              		.file 8 "c:\\program files\\daisytoolchain\\arm-none-eabi\\include\\c++\\10.2.1\\bits\\stl_vector.
   1:c:\program files\daisytoolchain\arm-none-eabi\include\c++\10.2.1\bits\stl_vector.h **** // Vector implementation -*- C++ -*-
   2:c:\program files\daisytoolchain\arm-none-eabi\include\c++\10.2.1\bits\stl_vector.h **** 
   3:c:\program files\daisytoolchain\arm-none-eabi\include\c++\10.2.1\bits\stl_vector.h **** // Copyright (C) 2001-2020 Free Software Foundation, Inc.
   4:c:\program files\daisytoolchain\arm-none-eabi\include\c++\10.2.1\bits\stl_vector.h **** //
   5:c:\program files\daisytoolchain\arm-none-eabi\include\c++\10.2.1\bits\stl_vector.h **** // This file is part of the GNU ISO C++ Library.  This library is free
   6:c:\program files\daisytoolchain\arm-none-eabi\include\c++\10.2.1\bits\stl_vector.h **** // software; you can redistribute it and/or modify it under the
   7:c:\program files\daisytoolchain\arm-none-eabi\include\c++\10.2.1\bits\stl_vector.h **** // terms of the GNU General Public License as published by the
   8:c:\program files\daisytoolchain\arm-none-eabi\include\c++\10.2.1\bits\stl_vector.h **** // Free Software Foundation; either version 3, or (at your option)
   9:c:\program files\daisytoolchain\arm-none-eabi\include\c++\10.2.1\bits\stl_vector.h **** // any later version.
  10:c:\program files\daisytoolchain\arm-none-eabi\include\c++\10.2.1\bits\stl_vector.h **** 
  11:c:\program files\daisytoolchain\arm-none-eabi\include\c++\10.2.1\bits\stl_vector.h **** // This library is distributed in the hope that it will be useful,
  12:c:\program files\daisytoolchain\arm-none-eabi\include\c++\10.2.1\bits\stl_vector.h **** // but WITHOUT ANY WARRANTY; without even the implied warranty of
  13:c:\program files\daisytoolchain\arm-none-eabi\include\c++\10.2.1\bits\stl_vector.h **** // MERCHANTABILITY or FITNESS FOR A PARTICULAR PURPOSE.  See the
  14:c:\program files\daisytoolchain\arm-none-eabi\include\c++\10.2.1\bits\stl_vector.h **** // GNU General Public License for more details.
  15:c:\program files\daisytoolchain\arm-none-eabi\include\c++\10.2.1\bits\stl_vector.h **** 
  16:c:\program files\daisytoolchain\arm-none-eabi\include\c++\10.2.1\bits\stl_vector.h **** // Under Section 7 of GPL version 3, you are granted additional
  17:c:\program files\daisytoolchain\arm-none-eabi\include\c++\10.2.1\bits\stl_vector.h **** // permissions described in the GCC Runtime Library Exception, version
ARM GAS  C:\Users\fv-19\AppData\Local\Temp\ccD6R0Rc.s 			page 11


  18:c:\program files\daisytoolchain\arm-none-eabi\include\c++\10.2.1\bits\stl_vector.h **** // 3.1, as published by the Free Software Foundation.
  19:c:\program files\daisytoolchain\arm-none-eabi\include\c++\10.2.1\bits\stl_vector.h **** 
  20:c:\program files\daisytoolchain\arm-none-eabi\include\c++\10.2.1\bits\stl_vector.h **** // You should have received a copy of the GNU General Public License and
  21:c:\program files\daisytoolchain\arm-none-eabi\include\c++\10.2.1\bits\stl_vector.h **** // a copy of the GCC Runtime Library Exception along with this program;
  22:c:\program files\daisytoolchain\arm-none-eabi\include\c++\10.2.1\bits\stl_vector.h **** // see the files COPYING3 and COPYING.RUNTIME respectively.  If not, see
  23:c:\program files\daisytoolchain\arm-none-eabi\include\c++\10.2.1\bits\stl_vector.h **** // <http://www.gnu.org/licenses/>.
  24:c:\program files\daisytoolchain\arm-none-eabi\include\c++\10.2.1\bits\stl_vector.h **** 
  25:c:\program files\daisytoolchain\arm-none-eabi\include\c++\10.2.1\bits\stl_vector.h **** /*
  26:c:\program files\daisytoolchain\arm-none-eabi\include\c++\10.2.1\bits\stl_vector.h ****  *
  27:c:\program files\daisytoolchain\arm-none-eabi\include\c++\10.2.1\bits\stl_vector.h ****  * Copyright (c) 1994
  28:c:\program files\daisytoolchain\arm-none-eabi\include\c++\10.2.1\bits\stl_vector.h ****  * Hewlett-Packard Company
  29:c:\program files\daisytoolchain\arm-none-eabi\include\c++\10.2.1\bits\stl_vector.h ****  *
  30:c:\program files\daisytoolchain\arm-none-eabi\include\c++\10.2.1\bits\stl_vector.h ****  * Permission to use, copy, modify, distribute and sell this software
  31:c:\program files\daisytoolchain\arm-none-eabi\include\c++\10.2.1\bits\stl_vector.h ****  * and its documentation for any purpose is hereby granted without fee,
  32:c:\program files\daisytoolchain\arm-none-eabi\include\c++\10.2.1\bits\stl_vector.h ****  * provided that the above copyright notice appear in all copies and
  33:c:\program files\daisytoolchain\arm-none-eabi\include\c++\10.2.1\bits\stl_vector.h ****  * that both that copyright notice and this permission notice appear
  34:c:\program files\daisytoolchain\arm-none-eabi\include\c++\10.2.1\bits\stl_vector.h ****  * in supporting documentation.  Hewlett-Packard Company makes no
  35:c:\program files\daisytoolchain\arm-none-eabi\include\c++\10.2.1\bits\stl_vector.h ****  * representations about the suitability of this software for any
  36:c:\program files\daisytoolchain\arm-none-eabi\include\c++\10.2.1\bits\stl_vector.h ****  * purpose.  It is provided "as is" without express or implied warranty.
  37:c:\program files\daisytoolchain\arm-none-eabi\include\c++\10.2.1\bits\stl_vector.h ****  *
  38:c:\program files\daisytoolchain\arm-none-eabi\include\c++\10.2.1\bits\stl_vector.h ****  *
  39:c:\program files\daisytoolchain\arm-none-eabi\include\c++\10.2.1\bits\stl_vector.h ****  * Copyright (c) 1996
  40:c:\program files\daisytoolchain\arm-none-eabi\include\c++\10.2.1\bits\stl_vector.h ****  * Silicon Graphics Computer Systems, Inc.
  41:c:\program files\daisytoolchain\arm-none-eabi\include\c++\10.2.1\bits\stl_vector.h ****  *
  42:c:\program files\daisytoolchain\arm-none-eabi\include\c++\10.2.1\bits\stl_vector.h ****  * Permission to use, copy, modify, distribute and sell this software
  43:c:\program files\daisytoolchain\arm-none-eabi\include\c++\10.2.1\bits\stl_vector.h ****  * and its documentation for any purpose is hereby granted without fee,
  44:c:\program files\daisytoolchain\arm-none-eabi\include\c++\10.2.1\bits\stl_vector.h ****  * provided that the above copyright notice appear in all copies and
  45:c:\program files\daisytoolchain\arm-none-eabi\include\c++\10.2.1\bits\stl_vector.h ****  * that both that copyright notice and this permission notice appear
  46:c:\program files\daisytoolchain\arm-none-eabi\include\c++\10.2.1\bits\stl_vector.h ****  * in supporting documentation.  Silicon Graphics makes no
  47:c:\program files\daisytoolchain\arm-none-eabi\include\c++\10.2.1\bits\stl_vector.h ****  * representations about the suitability of this  software for any
  48:c:\program files\daisytoolchain\arm-none-eabi\include\c++\10.2.1\bits\stl_vector.h ****  * purpose.  It is provided "as is" without express or implied warranty.
  49:c:\program files\daisytoolchain\arm-none-eabi\include\c++\10.2.1\bits\stl_vector.h ****  */
  50:c:\program files\daisytoolchain\arm-none-eabi\include\c++\10.2.1\bits\stl_vector.h **** 
  51:c:\program files\daisytoolchain\arm-none-eabi\include\c++\10.2.1\bits\stl_vector.h **** /** @file bits/stl_vector.h
  52:c:\program files\daisytoolchain\arm-none-eabi\include\c++\10.2.1\bits\stl_vector.h ****  *  This is an internal header file, included by other library headers.
  53:c:\program files\daisytoolchain\arm-none-eabi\include\c++\10.2.1\bits\stl_vector.h ****  *  Do not attempt to use it directly. @headername{vector}
  54:c:\program files\daisytoolchain\arm-none-eabi\include\c++\10.2.1\bits\stl_vector.h ****  */
  55:c:\program files\daisytoolchain\arm-none-eabi\include\c++\10.2.1\bits\stl_vector.h **** 
  56:c:\program files\daisytoolchain\arm-none-eabi\include\c++\10.2.1\bits\stl_vector.h **** #ifndef _STL_VECTOR_H
  57:c:\program files\daisytoolchain\arm-none-eabi\include\c++\10.2.1\bits\stl_vector.h **** #define _STL_VECTOR_H 1
  58:c:\program files\daisytoolchain\arm-none-eabi\include\c++\10.2.1\bits\stl_vector.h **** 
  59:c:\program files\daisytoolchain\arm-none-eabi\include\c++\10.2.1\bits\stl_vector.h **** #include <bits/stl_iterator_base_funcs.h>
  60:c:\program files\daisytoolchain\arm-none-eabi\include\c++\10.2.1\bits\stl_vector.h **** #include <bits/functexcept.h>
  61:c:\program files\daisytoolchain\arm-none-eabi\include\c++\10.2.1\bits\stl_vector.h **** #include <bits/concept_check.h>
  62:c:\program files\daisytoolchain\arm-none-eabi\include\c++\10.2.1\bits\stl_vector.h **** #if __cplusplus >= 201103L
  63:c:\program files\daisytoolchain\arm-none-eabi\include\c++\10.2.1\bits\stl_vector.h **** #include <initializer_list>
  64:c:\program files\daisytoolchain\arm-none-eabi\include\c++\10.2.1\bits\stl_vector.h **** #endif
  65:c:\program files\daisytoolchain\arm-none-eabi\include\c++\10.2.1\bits\stl_vector.h **** #if __cplusplus > 201703L
  66:c:\program files\daisytoolchain\arm-none-eabi\include\c++\10.2.1\bits\stl_vector.h **** # include <compare>
  67:c:\program files\daisytoolchain\arm-none-eabi\include\c++\10.2.1\bits\stl_vector.h **** #endif
  68:c:\program files\daisytoolchain\arm-none-eabi\include\c++\10.2.1\bits\stl_vector.h **** 
  69:c:\program files\daisytoolchain\arm-none-eabi\include\c++\10.2.1\bits\stl_vector.h **** #include <debug/assertions.h>
  70:c:\program files\daisytoolchain\arm-none-eabi\include\c++\10.2.1\bits\stl_vector.h **** 
  71:c:\program files\daisytoolchain\arm-none-eabi\include\c++\10.2.1\bits\stl_vector.h **** #if _GLIBCXX_SANITIZE_STD_ALLOCATOR && _GLIBCXX_SANITIZE_VECTOR
  72:c:\program files\daisytoolchain\arm-none-eabi\include\c++\10.2.1\bits\stl_vector.h **** extern "C" void
  73:c:\program files\daisytoolchain\arm-none-eabi\include\c++\10.2.1\bits\stl_vector.h **** __sanitizer_annotate_contiguous_container(const void*, const void*,
  74:c:\program files\daisytoolchain\arm-none-eabi\include\c++\10.2.1\bits\stl_vector.h **** 					  const void*, const void*);
ARM GAS  C:\Users\fv-19\AppData\Local\Temp\ccD6R0Rc.s 			page 12


  75:c:\program files\daisytoolchain\arm-none-eabi\include\c++\10.2.1\bits\stl_vector.h **** #endif
  76:c:\program files\daisytoolchain\arm-none-eabi\include\c++\10.2.1\bits\stl_vector.h **** 
  77:c:\program files\daisytoolchain\arm-none-eabi\include\c++\10.2.1\bits\stl_vector.h **** namespace std _GLIBCXX_VISIBILITY(default)
  78:c:\program files\daisytoolchain\arm-none-eabi\include\c++\10.2.1\bits\stl_vector.h **** {
  79:c:\program files\daisytoolchain\arm-none-eabi\include\c++\10.2.1\bits\stl_vector.h **** _GLIBCXX_BEGIN_NAMESPACE_VERSION
  80:c:\program files\daisytoolchain\arm-none-eabi\include\c++\10.2.1\bits\stl_vector.h **** _GLIBCXX_BEGIN_NAMESPACE_CONTAINER
  81:c:\program files\daisytoolchain\arm-none-eabi\include\c++\10.2.1\bits\stl_vector.h **** 
  82:c:\program files\daisytoolchain\arm-none-eabi\include\c++\10.2.1\bits\stl_vector.h ****   /// See bits/stl_deque.h's _Deque_base for an explanation.
  83:c:\program files\daisytoolchain\arm-none-eabi\include\c++\10.2.1\bits\stl_vector.h ****   template<typename _Tp, typename _Alloc>
  84:c:\program files\daisytoolchain\arm-none-eabi\include\c++\10.2.1\bits\stl_vector.h ****     struct _Vector_base
  85:c:\program files\daisytoolchain\arm-none-eabi\include\c++\10.2.1\bits\stl_vector.h ****     {
  86:c:\program files\daisytoolchain\arm-none-eabi\include\c++\10.2.1\bits\stl_vector.h ****       typedef typename __gnu_cxx::__alloc_traits<_Alloc>::template
  87:c:\program files\daisytoolchain\arm-none-eabi\include\c++\10.2.1\bits\stl_vector.h **** 	rebind<_Tp>::other _Tp_alloc_type;
  88:c:\program files\daisytoolchain\arm-none-eabi\include\c++\10.2.1\bits\stl_vector.h ****       typedef typename __gnu_cxx::__alloc_traits<_Tp_alloc_type>::pointer
  89:c:\program files\daisytoolchain\arm-none-eabi\include\c++\10.2.1\bits\stl_vector.h ****        	pointer;
  90:c:\program files\daisytoolchain\arm-none-eabi\include\c++\10.2.1\bits\stl_vector.h **** 
  91:c:\program files\daisytoolchain\arm-none-eabi\include\c++\10.2.1\bits\stl_vector.h ****       struct _Vector_impl_data
  92:c:\program files\daisytoolchain\arm-none-eabi\include\c++\10.2.1\bits\stl_vector.h ****       {
  93:c:\program files\daisytoolchain\arm-none-eabi\include\c++\10.2.1\bits\stl_vector.h **** 	pointer _M_start;
  94:c:\program files\daisytoolchain\arm-none-eabi\include\c++\10.2.1\bits\stl_vector.h **** 	pointer _M_finish;
  95:c:\program files\daisytoolchain\arm-none-eabi\include\c++\10.2.1\bits\stl_vector.h **** 	pointer _M_end_of_storage;
  96:c:\program files\daisytoolchain\arm-none-eabi\include\c++\10.2.1\bits\stl_vector.h **** 
  97:c:\program files\daisytoolchain\arm-none-eabi\include\c++\10.2.1\bits\stl_vector.h **** 	_Vector_impl_data() _GLIBCXX_NOEXCEPT
  98:c:\program files\daisytoolchain\arm-none-eabi\include\c++\10.2.1\bits\stl_vector.h **** 	: _M_start(), _M_finish(), _M_end_of_storage()
  99:c:\program files\daisytoolchain\arm-none-eabi\include\c++\10.2.1\bits\stl_vector.h **** 	{ }
 100:c:\program files\daisytoolchain\arm-none-eabi\include\c++\10.2.1\bits\stl_vector.h **** 
 101:c:\program files\daisytoolchain\arm-none-eabi\include\c++\10.2.1\bits\stl_vector.h **** #if __cplusplus >= 201103L
 102:c:\program files\daisytoolchain\arm-none-eabi\include\c++\10.2.1\bits\stl_vector.h **** 	_Vector_impl_data(_Vector_impl_data&& __x) noexcept
 103:c:\program files\daisytoolchain\arm-none-eabi\include\c++\10.2.1\bits\stl_vector.h **** 	: _M_start(__x._M_start), _M_finish(__x._M_finish),
 104:c:\program files\daisytoolchain\arm-none-eabi\include\c++\10.2.1\bits\stl_vector.h **** 	  _M_end_of_storage(__x._M_end_of_storage)
 105:c:\program files\daisytoolchain\arm-none-eabi\include\c++\10.2.1\bits\stl_vector.h **** 	{ __x._M_start = __x._M_finish = __x._M_end_of_storage = pointer(); }
 106:c:\program files\daisytoolchain\arm-none-eabi\include\c++\10.2.1\bits\stl_vector.h **** #endif
 107:c:\program files\daisytoolchain\arm-none-eabi\include\c++\10.2.1\bits\stl_vector.h **** 
 108:c:\program files\daisytoolchain\arm-none-eabi\include\c++\10.2.1\bits\stl_vector.h **** 	void
 109:c:\program files\daisytoolchain\arm-none-eabi\include\c++\10.2.1\bits\stl_vector.h **** 	_M_copy_data(_Vector_impl_data const& __x) _GLIBCXX_NOEXCEPT
 110:c:\program files\daisytoolchain\arm-none-eabi\include\c++\10.2.1\bits\stl_vector.h **** 	{
 111:c:\program files\daisytoolchain\arm-none-eabi\include\c++\10.2.1\bits\stl_vector.h **** 	  _M_start = __x._M_start;
 112:c:\program files\daisytoolchain\arm-none-eabi\include\c++\10.2.1\bits\stl_vector.h **** 	  _M_finish = __x._M_finish;
 113:c:\program files\daisytoolchain\arm-none-eabi\include\c++\10.2.1\bits\stl_vector.h **** 	  _M_end_of_storage = __x._M_end_of_storage;
 114:c:\program files\daisytoolchain\arm-none-eabi\include\c++\10.2.1\bits\stl_vector.h **** 	}
 115:c:\program files\daisytoolchain\arm-none-eabi\include\c++\10.2.1\bits\stl_vector.h **** 
 116:c:\program files\daisytoolchain\arm-none-eabi\include\c++\10.2.1\bits\stl_vector.h **** 	void
 117:c:\program files\daisytoolchain\arm-none-eabi\include\c++\10.2.1\bits\stl_vector.h **** 	_M_swap_data(_Vector_impl_data& __x) _GLIBCXX_NOEXCEPT
 118:c:\program files\daisytoolchain\arm-none-eabi\include\c++\10.2.1\bits\stl_vector.h **** 	{
 119:c:\program files\daisytoolchain\arm-none-eabi\include\c++\10.2.1\bits\stl_vector.h **** 	  // Do not use std::swap(_M_start, __x._M_start), etc as it loses
 120:c:\program files\daisytoolchain\arm-none-eabi\include\c++\10.2.1\bits\stl_vector.h **** 	  // information used by TBAA.
 121:c:\program files\daisytoolchain\arm-none-eabi\include\c++\10.2.1\bits\stl_vector.h **** 	  _Vector_impl_data __tmp;
 122:c:\program files\daisytoolchain\arm-none-eabi\include\c++\10.2.1\bits\stl_vector.h **** 	  __tmp._M_copy_data(*this);
 123:c:\program files\daisytoolchain\arm-none-eabi\include\c++\10.2.1\bits\stl_vector.h **** 	  _M_copy_data(__x);
 124:c:\program files\daisytoolchain\arm-none-eabi\include\c++\10.2.1\bits\stl_vector.h **** 	  __x._M_copy_data(__tmp);
 125:c:\program files\daisytoolchain\arm-none-eabi\include\c++\10.2.1\bits\stl_vector.h **** 	}
 126:c:\program files\daisytoolchain\arm-none-eabi\include\c++\10.2.1\bits\stl_vector.h ****       };
 127:c:\program files\daisytoolchain\arm-none-eabi\include\c++\10.2.1\bits\stl_vector.h **** 
 128:c:\program files\daisytoolchain\arm-none-eabi\include\c++\10.2.1\bits\stl_vector.h ****       struct _Vector_impl
 129:c:\program files\daisytoolchain\arm-none-eabi\include\c++\10.2.1\bits\stl_vector.h **** 	: public _Tp_alloc_type, public _Vector_impl_data
 130:c:\program files\daisytoolchain\arm-none-eabi\include\c++\10.2.1\bits\stl_vector.h ****       {
 131:c:\program files\daisytoolchain\arm-none-eabi\include\c++\10.2.1\bits\stl_vector.h **** 	_Vector_impl() _GLIBCXX_NOEXCEPT_IF(
ARM GAS  C:\Users\fv-19\AppData\Local\Temp\ccD6R0Rc.s 			page 13


 132:c:\program files\daisytoolchain\arm-none-eabi\include\c++\10.2.1\bits\stl_vector.h **** 	    is_nothrow_default_constructible<_Tp_alloc_type>::value)
 133:c:\program files\daisytoolchain\arm-none-eabi\include\c++\10.2.1\bits\stl_vector.h **** 	: _Tp_alloc_type()
 134:c:\program files\daisytoolchain\arm-none-eabi\include\c++\10.2.1\bits\stl_vector.h **** 	{ }
 135:c:\program files\daisytoolchain\arm-none-eabi\include\c++\10.2.1\bits\stl_vector.h **** 
 136:c:\program files\daisytoolchain\arm-none-eabi\include\c++\10.2.1\bits\stl_vector.h **** 	_Vector_impl(_Tp_alloc_type const& __a) _GLIBCXX_NOEXCEPT
 137:c:\program files\daisytoolchain\arm-none-eabi\include\c++\10.2.1\bits\stl_vector.h **** 	: _Tp_alloc_type(__a)
 138:c:\program files\daisytoolchain\arm-none-eabi\include\c++\10.2.1\bits\stl_vector.h **** 	{ }
 139:c:\program files\daisytoolchain\arm-none-eabi\include\c++\10.2.1\bits\stl_vector.h **** 
 140:c:\program files\daisytoolchain\arm-none-eabi\include\c++\10.2.1\bits\stl_vector.h **** #if __cplusplus >= 201103L
 141:c:\program files\daisytoolchain\arm-none-eabi\include\c++\10.2.1\bits\stl_vector.h **** 	// Not defaulted, to enforce noexcept(true) even when
 142:c:\program files\daisytoolchain\arm-none-eabi\include\c++\10.2.1\bits\stl_vector.h **** 	// !is_nothrow_move_constructible<_Tp_alloc_type>.
 143:c:\program files\daisytoolchain\arm-none-eabi\include\c++\10.2.1\bits\stl_vector.h **** 	_Vector_impl(_Vector_impl&& __x) noexcept
 144:c:\program files\daisytoolchain\arm-none-eabi\include\c++\10.2.1\bits\stl_vector.h **** 	: _Tp_alloc_type(std::move(__x)), _Vector_impl_data(std::move(__x))
 145:c:\program files\daisytoolchain\arm-none-eabi\include\c++\10.2.1\bits\stl_vector.h **** 	{ }
 146:c:\program files\daisytoolchain\arm-none-eabi\include\c++\10.2.1\bits\stl_vector.h **** 
 147:c:\program files\daisytoolchain\arm-none-eabi\include\c++\10.2.1\bits\stl_vector.h **** 	_Vector_impl(_Tp_alloc_type&& __a) noexcept
 148:c:\program files\daisytoolchain\arm-none-eabi\include\c++\10.2.1\bits\stl_vector.h **** 	: _Tp_alloc_type(std::move(__a))
 149:c:\program files\daisytoolchain\arm-none-eabi\include\c++\10.2.1\bits\stl_vector.h **** 	{ }
 150:c:\program files\daisytoolchain\arm-none-eabi\include\c++\10.2.1\bits\stl_vector.h **** 
 151:c:\program files\daisytoolchain\arm-none-eabi\include\c++\10.2.1\bits\stl_vector.h **** 	_Vector_impl(_Tp_alloc_type&& __a, _Vector_impl&& __rv) noexcept
 152:c:\program files\daisytoolchain\arm-none-eabi\include\c++\10.2.1\bits\stl_vector.h **** 	: _Tp_alloc_type(std::move(__a)), _Vector_impl_data(std::move(__rv))
 153:c:\program files\daisytoolchain\arm-none-eabi\include\c++\10.2.1\bits\stl_vector.h **** 	{ }
 154:c:\program files\daisytoolchain\arm-none-eabi\include\c++\10.2.1\bits\stl_vector.h **** #endif
 155:c:\program files\daisytoolchain\arm-none-eabi\include\c++\10.2.1\bits\stl_vector.h **** 
 156:c:\program files\daisytoolchain\arm-none-eabi\include\c++\10.2.1\bits\stl_vector.h **** #if _GLIBCXX_SANITIZE_STD_ALLOCATOR && _GLIBCXX_SANITIZE_VECTOR
 157:c:\program files\daisytoolchain\arm-none-eabi\include\c++\10.2.1\bits\stl_vector.h **** 	template<typename = _Tp_alloc_type>
 158:c:\program files\daisytoolchain\arm-none-eabi\include\c++\10.2.1\bits\stl_vector.h **** 	  struct _Asan
 159:c:\program files\daisytoolchain\arm-none-eabi\include\c++\10.2.1\bits\stl_vector.h **** 	  {
 160:c:\program files\daisytoolchain\arm-none-eabi\include\c++\10.2.1\bits\stl_vector.h **** 	    typedef typename __gnu_cxx::__alloc_traits<_Tp_alloc_type>
 161:c:\program files\daisytoolchain\arm-none-eabi\include\c++\10.2.1\bits\stl_vector.h **** 	      ::size_type size_type;
 162:c:\program files\daisytoolchain\arm-none-eabi\include\c++\10.2.1\bits\stl_vector.h **** 
 163:c:\program files\daisytoolchain\arm-none-eabi\include\c++\10.2.1\bits\stl_vector.h **** 	    static void _S_shrink(_Vector_impl&, size_type) { }
 164:c:\program files\daisytoolchain\arm-none-eabi\include\c++\10.2.1\bits\stl_vector.h **** 	    static void _S_on_dealloc(_Vector_impl&) { }
 165:c:\program files\daisytoolchain\arm-none-eabi\include\c++\10.2.1\bits\stl_vector.h **** 
 166:c:\program files\daisytoolchain\arm-none-eabi\include\c++\10.2.1\bits\stl_vector.h **** 	    typedef _Vector_impl& _Reinit;
 167:c:\program files\daisytoolchain\arm-none-eabi\include\c++\10.2.1\bits\stl_vector.h **** 
 168:c:\program files\daisytoolchain\arm-none-eabi\include\c++\10.2.1\bits\stl_vector.h **** 	    struct _Grow
 169:c:\program files\daisytoolchain\arm-none-eabi\include\c++\10.2.1\bits\stl_vector.h **** 	    {
 170:c:\program files\daisytoolchain\arm-none-eabi\include\c++\10.2.1\bits\stl_vector.h **** 	      _Grow(_Vector_impl&, size_type) { }
 171:c:\program files\daisytoolchain\arm-none-eabi\include\c++\10.2.1\bits\stl_vector.h **** 	      void _M_grew(size_type) { }
 172:c:\program files\daisytoolchain\arm-none-eabi\include\c++\10.2.1\bits\stl_vector.h **** 	    };
 173:c:\program files\daisytoolchain\arm-none-eabi\include\c++\10.2.1\bits\stl_vector.h **** 	  };
 174:c:\program files\daisytoolchain\arm-none-eabi\include\c++\10.2.1\bits\stl_vector.h **** 
 175:c:\program files\daisytoolchain\arm-none-eabi\include\c++\10.2.1\bits\stl_vector.h **** 	// Enable ASan annotations for memory obtained from std::allocator.
 176:c:\program files\daisytoolchain\arm-none-eabi\include\c++\10.2.1\bits\stl_vector.h **** 	template<typename _Up>
 177:c:\program files\daisytoolchain\arm-none-eabi\include\c++\10.2.1\bits\stl_vector.h **** 	  struct _Asan<allocator<_Up> >
 178:c:\program files\daisytoolchain\arm-none-eabi\include\c++\10.2.1\bits\stl_vector.h **** 	  {
 179:c:\program files\daisytoolchain\arm-none-eabi\include\c++\10.2.1\bits\stl_vector.h **** 	    typedef typename __gnu_cxx::__alloc_traits<_Tp_alloc_type>
 180:c:\program files\daisytoolchain\arm-none-eabi\include\c++\10.2.1\bits\stl_vector.h **** 	      ::size_type size_type;
 181:c:\program files\daisytoolchain\arm-none-eabi\include\c++\10.2.1\bits\stl_vector.h **** 
 182:c:\program files\daisytoolchain\arm-none-eabi\include\c++\10.2.1\bits\stl_vector.h **** 	    // Adjust ASan annotation for [_M_start, _M_end_of_storage) to
 183:c:\program files\daisytoolchain\arm-none-eabi\include\c++\10.2.1\bits\stl_vector.h **** 	    // mark end of valid region as __curr instead of __prev.
 184:c:\program files\daisytoolchain\arm-none-eabi\include\c++\10.2.1\bits\stl_vector.h **** 	    static void
 185:c:\program files\daisytoolchain\arm-none-eabi\include\c++\10.2.1\bits\stl_vector.h **** 	    _S_adjust(_Vector_impl& __impl, pointer __prev, pointer __curr)
 186:c:\program files\daisytoolchain\arm-none-eabi\include\c++\10.2.1\bits\stl_vector.h **** 	    {
 187:c:\program files\daisytoolchain\arm-none-eabi\include\c++\10.2.1\bits\stl_vector.h **** 	      __sanitizer_annotate_contiguous_container(__impl._M_start,
 188:c:\program files\daisytoolchain\arm-none-eabi\include\c++\10.2.1\bits\stl_vector.h **** 		  __impl._M_end_of_storage, __prev, __curr);
ARM GAS  C:\Users\fv-19\AppData\Local\Temp\ccD6R0Rc.s 			page 14


 189:c:\program files\daisytoolchain\arm-none-eabi\include\c++\10.2.1\bits\stl_vector.h **** 	    }
 190:c:\program files\daisytoolchain\arm-none-eabi\include\c++\10.2.1\bits\stl_vector.h **** 
 191:c:\program files\daisytoolchain\arm-none-eabi\include\c++\10.2.1\bits\stl_vector.h **** 	    static void
 192:c:\program files\daisytoolchain\arm-none-eabi\include\c++\10.2.1\bits\stl_vector.h **** 	    _S_grow(_Vector_impl& __impl, size_type __n)
 193:c:\program files\daisytoolchain\arm-none-eabi\include\c++\10.2.1\bits\stl_vector.h **** 	    { _S_adjust(__impl, __impl._M_finish, __impl._M_finish + __n); }
 194:c:\program files\daisytoolchain\arm-none-eabi\include\c++\10.2.1\bits\stl_vector.h **** 
 195:c:\program files\daisytoolchain\arm-none-eabi\include\c++\10.2.1\bits\stl_vector.h **** 	    static void
 196:c:\program files\daisytoolchain\arm-none-eabi\include\c++\10.2.1\bits\stl_vector.h **** 	    _S_shrink(_Vector_impl& __impl, size_type __n)
 197:c:\program files\daisytoolchain\arm-none-eabi\include\c++\10.2.1\bits\stl_vector.h **** 	    { _S_adjust(__impl, __impl._M_finish + __n, __impl._M_finish); }
 198:c:\program files\daisytoolchain\arm-none-eabi\include\c++\10.2.1\bits\stl_vector.h **** 
 199:c:\program files\daisytoolchain\arm-none-eabi\include\c++\10.2.1\bits\stl_vector.h **** 	    static void
 200:c:\program files\daisytoolchain\arm-none-eabi\include\c++\10.2.1\bits\stl_vector.h **** 	    _S_on_dealloc(_Vector_impl& __impl)
 201:c:\program files\daisytoolchain\arm-none-eabi\include\c++\10.2.1\bits\stl_vector.h **** 	    {
 202:c:\program files\daisytoolchain\arm-none-eabi\include\c++\10.2.1\bits\stl_vector.h **** 	      if (__impl._M_start)
 203:c:\program files\daisytoolchain\arm-none-eabi\include\c++\10.2.1\bits\stl_vector.h **** 		_S_adjust(__impl, __impl._M_finish, __impl._M_end_of_storage);
 204:c:\program files\daisytoolchain\arm-none-eabi\include\c++\10.2.1\bits\stl_vector.h **** 	    }
 205:c:\program files\daisytoolchain\arm-none-eabi\include\c++\10.2.1\bits\stl_vector.h **** 
 206:c:\program files\daisytoolchain\arm-none-eabi\include\c++\10.2.1\bits\stl_vector.h **** 	    // Used on reallocation to tell ASan unused capacity is invalid.
 207:c:\program files\daisytoolchain\arm-none-eabi\include\c++\10.2.1\bits\stl_vector.h **** 	    struct _Reinit
 208:c:\program files\daisytoolchain\arm-none-eabi\include\c++\10.2.1\bits\stl_vector.h **** 	    {
 209:c:\program files\daisytoolchain\arm-none-eabi\include\c++\10.2.1\bits\stl_vector.h **** 	      explicit _Reinit(_Vector_impl& __impl) : _M_impl(__impl)
 210:c:\program files\daisytoolchain\arm-none-eabi\include\c++\10.2.1\bits\stl_vector.h **** 	      {
 211:c:\program files\daisytoolchain\arm-none-eabi\include\c++\10.2.1\bits\stl_vector.h **** 		// Mark unused capacity as valid again before deallocating it.
 212:c:\program files\daisytoolchain\arm-none-eabi\include\c++\10.2.1\bits\stl_vector.h **** 		_S_on_dealloc(_M_impl);
 213:c:\program files\daisytoolchain\arm-none-eabi\include\c++\10.2.1\bits\stl_vector.h **** 	      }
 214:c:\program files\daisytoolchain\arm-none-eabi\include\c++\10.2.1\bits\stl_vector.h **** 
 215:c:\program files\daisytoolchain\arm-none-eabi\include\c++\10.2.1\bits\stl_vector.h **** 	      ~_Reinit()
 216:c:\program files\daisytoolchain\arm-none-eabi\include\c++\10.2.1\bits\stl_vector.h **** 	      {
 217:c:\program files\daisytoolchain\arm-none-eabi\include\c++\10.2.1\bits\stl_vector.h **** 		// Mark unused capacity as invalid after reallocation.
 218:c:\program files\daisytoolchain\arm-none-eabi\include\c++\10.2.1\bits\stl_vector.h **** 		if (_M_impl._M_start)
 219:c:\program files\daisytoolchain\arm-none-eabi\include\c++\10.2.1\bits\stl_vector.h **** 		  _S_adjust(_M_impl, _M_impl._M_end_of_storage,
 220:c:\program files\daisytoolchain\arm-none-eabi\include\c++\10.2.1\bits\stl_vector.h **** 			    _M_impl._M_finish);
 221:c:\program files\daisytoolchain\arm-none-eabi\include\c++\10.2.1\bits\stl_vector.h **** 	      }
 222:c:\program files\daisytoolchain\arm-none-eabi\include\c++\10.2.1\bits\stl_vector.h **** 
 223:c:\program files\daisytoolchain\arm-none-eabi\include\c++\10.2.1\bits\stl_vector.h **** 	      _Vector_impl& _M_impl;
 224:c:\program files\daisytoolchain\arm-none-eabi\include\c++\10.2.1\bits\stl_vector.h **** 
 225:c:\program files\daisytoolchain\arm-none-eabi\include\c++\10.2.1\bits\stl_vector.h **** #if __cplusplus >= 201103L
 226:c:\program files\daisytoolchain\arm-none-eabi\include\c++\10.2.1\bits\stl_vector.h **** 	      _Reinit(const _Reinit&) = delete;
 227:c:\program files\daisytoolchain\arm-none-eabi\include\c++\10.2.1\bits\stl_vector.h **** 	      _Reinit& operator=(const _Reinit&) = delete;
 228:c:\program files\daisytoolchain\arm-none-eabi\include\c++\10.2.1\bits\stl_vector.h **** #endif
 229:c:\program files\daisytoolchain\arm-none-eabi\include\c++\10.2.1\bits\stl_vector.h **** 	    };
 230:c:\program files\daisytoolchain\arm-none-eabi\include\c++\10.2.1\bits\stl_vector.h **** 
 231:c:\program files\daisytoolchain\arm-none-eabi\include\c++\10.2.1\bits\stl_vector.h **** 	    // Tell ASan when unused capacity is initialized to be valid.
 232:c:\program files\daisytoolchain\arm-none-eabi\include\c++\10.2.1\bits\stl_vector.h **** 	    struct _Grow
 233:c:\program files\daisytoolchain\arm-none-eabi\include\c++\10.2.1\bits\stl_vector.h **** 	    {
 234:c:\program files\daisytoolchain\arm-none-eabi\include\c++\10.2.1\bits\stl_vector.h **** 	      _Grow(_Vector_impl& __impl, size_type __n)
 235:c:\program files\daisytoolchain\arm-none-eabi\include\c++\10.2.1\bits\stl_vector.h **** 	      : _M_impl(__impl), _M_n(__n)
 236:c:\program files\daisytoolchain\arm-none-eabi\include\c++\10.2.1\bits\stl_vector.h **** 	      { _S_grow(_M_impl, __n); }
 237:c:\program files\daisytoolchain\arm-none-eabi\include\c++\10.2.1\bits\stl_vector.h **** 
 238:c:\program files\daisytoolchain\arm-none-eabi\include\c++\10.2.1\bits\stl_vector.h **** 	      ~_Grow() { if (_M_n) _S_shrink(_M_impl, _M_n); }
 239:c:\program files\daisytoolchain\arm-none-eabi\include\c++\10.2.1\bits\stl_vector.h **** 
 240:c:\program files\daisytoolchain\arm-none-eabi\include\c++\10.2.1\bits\stl_vector.h **** 	      void _M_grew(size_type __n) { _M_n -= __n; }
 241:c:\program files\daisytoolchain\arm-none-eabi\include\c++\10.2.1\bits\stl_vector.h **** 
 242:c:\program files\daisytoolchain\arm-none-eabi\include\c++\10.2.1\bits\stl_vector.h **** #if __cplusplus >= 201103L
 243:c:\program files\daisytoolchain\arm-none-eabi\include\c++\10.2.1\bits\stl_vector.h **** 	      _Grow(const _Grow&) = delete;
 244:c:\program files\daisytoolchain\arm-none-eabi\include\c++\10.2.1\bits\stl_vector.h **** 	      _Grow& operator=(const _Grow&) = delete;
 245:c:\program files\daisytoolchain\arm-none-eabi\include\c++\10.2.1\bits\stl_vector.h **** #endif
ARM GAS  C:\Users\fv-19\AppData\Local\Temp\ccD6R0Rc.s 			page 15


 246:c:\program files\daisytoolchain\arm-none-eabi\include\c++\10.2.1\bits\stl_vector.h **** 	    private:
 247:c:\program files\daisytoolchain\arm-none-eabi\include\c++\10.2.1\bits\stl_vector.h **** 	      _Vector_impl& _M_impl;
 248:c:\program files\daisytoolchain\arm-none-eabi\include\c++\10.2.1\bits\stl_vector.h **** 	      size_type _M_n;
 249:c:\program files\daisytoolchain\arm-none-eabi\include\c++\10.2.1\bits\stl_vector.h **** 	    };
 250:c:\program files\daisytoolchain\arm-none-eabi\include\c++\10.2.1\bits\stl_vector.h **** 	  };
 251:c:\program files\daisytoolchain\arm-none-eabi\include\c++\10.2.1\bits\stl_vector.h **** 
 252:c:\program files\daisytoolchain\arm-none-eabi\include\c++\10.2.1\bits\stl_vector.h **** #define _GLIBCXX_ASAN_ANNOTATE_REINIT \
 253:c:\program files\daisytoolchain\arm-none-eabi\include\c++\10.2.1\bits\stl_vector.h ****   typename _Base::_Vector_impl::template _Asan<>::_Reinit const \
 254:c:\program files\daisytoolchain\arm-none-eabi\include\c++\10.2.1\bits\stl_vector.h **** 	__attribute__((__unused__)) __reinit_guard(this->_M_impl)
 255:c:\program files\daisytoolchain\arm-none-eabi\include\c++\10.2.1\bits\stl_vector.h **** #define _GLIBCXX_ASAN_ANNOTATE_GROW(n) \
 256:c:\program files\daisytoolchain\arm-none-eabi\include\c++\10.2.1\bits\stl_vector.h ****   typename _Base::_Vector_impl::template _Asan<>::_Grow \
 257:c:\program files\daisytoolchain\arm-none-eabi\include\c++\10.2.1\bits\stl_vector.h **** 	__attribute__((__unused__)) __grow_guard(this->_M_impl, (n))
 258:c:\program files\daisytoolchain\arm-none-eabi\include\c++\10.2.1\bits\stl_vector.h **** #define _GLIBCXX_ASAN_ANNOTATE_GREW(n) __grow_guard._M_grew(n)
 259:c:\program files\daisytoolchain\arm-none-eabi\include\c++\10.2.1\bits\stl_vector.h **** #define _GLIBCXX_ASAN_ANNOTATE_SHRINK(n) \
 260:c:\program files\daisytoolchain\arm-none-eabi\include\c++\10.2.1\bits\stl_vector.h ****   _Base::_Vector_impl::template _Asan<>::_S_shrink(this->_M_impl, n)
 261:c:\program files\daisytoolchain\arm-none-eabi\include\c++\10.2.1\bits\stl_vector.h **** #define _GLIBCXX_ASAN_ANNOTATE_BEFORE_DEALLOC \
 262:c:\program files\daisytoolchain\arm-none-eabi\include\c++\10.2.1\bits\stl_vector.h ****   _Base::_Vector_impl::template _Asan<>::_S_on_dealloc(this->_M_impl)
 263:c:\program files\daisytoolchain\arm-none-eabi\include\c++\10.2.1\bits\stl_vector.h **** #else // ! (_GLIBCXX_SANITIZE_STD_ALLOCATOR && _GLIBCXX_SANITIZE_VECTOR)
 264:c:\program files\daisytoolchain\arm-none-eabi\include\c++\10.2.1\bits\stl_vector.h **** #define _GLIBCXX_ASAN_ANNOTATE_REINIT
 265:c:\program files\daisytoolchain\arm-none-eabi\include\c++\10.2.1\bits\stl_vector.h **** #define _GLIBCXX_ASAN_ANNOTATE_GROW(n)
 266:c:\program files\daisytoolchain\arm-none-eabi\include\c++\10.2.1\bits\stl_vector.h **** #define _GLIBCXX_ASAN_ANNOTATE_GREW(n)
 267:c:\program files\daisytoolchain\arm-none-eabi\include\c++\10.2.1\bits\stl_vector.h **** #define _GLIBCXX_ASAN_ANNOTATE_SHRINK(n)
 268:c:\program files\daisytoolchain\arm-none-eabi\include\c++\10.2.1\bits\stl_vector.h **** #define _GLIBCXX_ASAN_ANNOTATE_BEFORE_DEALLOC
 269:c:\program files\daisytoolchain\arm-none-eabi\include\c++\10.2.1\bits\stl_vector.h **** #endif // _GLIBCXX_SANITIZE_STD_ALLOCATOR && _GLIBCXX_SANITIZE_VECTOR
 270:c:\program files\daisytoolchain\arm-none-eabi\include\c++\10.2.1\bits\stl_vector.h ****       };
 271:c:\program files\daisytoolchain\arm-none-eabi\include\c++\10.2.1\bits\stl_vector.h **** 
 272:c:\program files\daisytoolchain\arm-none-eabi\include\c++\10.2.1\bits\stl_vector.h ****     public:
 273:c:\program files\daisytoolchain\arm-none-eabi\include\c++\10.2.1\bits\stl_vector.h ****       typedef _Alloc allocator_type;
 274:c:\program files\daisytoolchain\arm-none-eabi\include\c++\10.2.1\bits\stl_vector.h **** 
 275:c:\program files\daisytoolchain\arm-none-eabi\include\c++\10.2.1\bits\stl_vector.h ****       _Tp_alloc_type&
 276:c:\program files\daisytoolchain\arm-none-eabi\include\c++\10.2.1\bits\stl_vector.h ****       _M_get_Tp_allocator() _GLIBCXX_NOEXCEPT
 277:c:\program files\daisytoolchain\arm-none-eabi\include\c++\10.2.1\bits\stl_vector.h ****       { return this->_M_impl; }
 278:c:\program files\daisytoolchain\arm-none-eabi\include\c++\10.2.1\bits\stl_vector.h **** 
 279:c:\program files\daisytoolchain\arm-none-eabi\include\c++\10.2.1\bits\stl_vector.h ****       const _Tp_alloc_type&
 280:c:\program files\daisytoolchain\arm-none-eabi\include\c++\10.2.1\bits\stl_vector.h ****       _M_get_Tp_allocator() const _GLIBCXX_NOEXCEPT
 281:c:\program files\daisytoolchain\arm-none-eabi\include\c++\10.2.1\bits\stl_vector.h ****       { return this->_M_impl; }
 282:c:\program files\daisytoolchain\arm-none-eabi\include\c++\10.2.1\bits\stl_vector.h **** 
 283:c:\program files\daisytoolchain\arm-none-eabi\include\c++\10.2.1\bits\stl_vector.h ****       allocator_type
 284:c:\program files\daisytoolchain\arm-none-eabi\include\c++\10.2.1\bits\stl_vector.h ****       get_allocator() const _GLIBCXX_NOEXCEPT
 285:c:\program files\daisytoolchain\arm-none-eabi\include\c++\10.2.1\bits\stl_vector.h ****       { return allocator_type(_M_get_Tp_allocator()); }
 286:c:\program files\daisytoolchain\arm-none-eabi\include\c++\10.2.1\bits\stl_vector.h **** 
 287:c:\program files\daisytoolchain\arm-none-eabi\include\c++\10.2.1\bits\stl_vector.h **** #if __cplusplus >= 201103L
 288:c:\program files\daisytoolchain\arm-none-eabi\include\c++\10.2.1\bits\stl_vector.h ****       _Vector_base() = default;
 289:c:\program files\daisytoolchain\arm-none-eabi\include\c++\10.2.1\bits\stl_vector.h **** #else
 290:c:\program files\daisytoolchain\arm-none-eabi\include\c++\10.2.1\bits\stl_vector.h ****       _Vector_base() { }
 291:c:\program files\daisytoolchain\arm-none-eabi\include\c++\10.2.1\bits\stl_vector.h **** #endif
 292:c:\program files\daisytoolchain\arm-none-eabi\include\c++\10.2.1\bits\stl_vector.h **** 
 293:c:\program files\daisytoolchain\arm-none-eabi\include\c++\10.2.1\bits\stl_vector.h ****       _Vector_base(const allocator_type& __a) _GLIBCXX_NOEXCEPT
 294:c:\program files\daisytoolchain\arm-none-eabi\include\c++\10.2.1\bits\stl_vector.h ****       : _M_impl(__a) { }
 295:c:\program files\daisytoolchain\arm-none-eabi\include\c++\10.2.1\bits\stl_vector.h **** 
 296:c:\program files\daisytoolchain\arm-none-eabi\include\c++\10.2.1\bits\stl_vector.h ****       // Kept for ABI compatibility.
 297:c:\program files\daisytoolchain\arm-none-eabi\include\c++\10.2.1\bits\stl_vector.h **** #if !_GLIBCXX_INLINE_VERSION
 298:c:\program files\daisytoolchain\arm-none-eabi\include\c++\10.2.1\bits\stl_vector.h ****       _Vector_base(size_t __n)
 299:c:\program files\daisytoolchain\arm-none-eabi\include\c++\10.2.1\bits\stl_vector.h ****       : _M_impl()
 300:c:\program files\daisytoolchain\arm-none-eabi\include\c++\10.2.1\bits\stl_vector.h ****       { _M_create_storage(__n); }
 301:c:\program files\daisytoolchain\arm-none-eabi\include\c++\10.2.1\bits\stl_vector.h **** #endif
 302:c:\program files\daisytoolchain\arm-none-eabi\include\c++\10.2.1\bits\stl_vector.h **** 
ARM GAS  C:\Users\fv-19\AppData\Local\Temp\ccD6R0Rc.s 			page 16


 303:c:\program files\daisytoolchain\arm-none-eabi\include\c++\10.2.1\bits\stl_vector.h ****       _Vector_base(size_t __n, const allocator_type& __a)
 304:c:\program files\daisytoolchain\arm-none-eabi\include\c++\10.2.1\bits\stl_vector.h ****       : _M_impl(__a)
 305:c:\program files\daisytoolchain\arm-none-eabi\include\c++\10.2.1\bits\stl_vector.h ****       { _M_create_storage(__n); }
 306:c:\program files\daisytoolchain\arm-none-eabi\include\c++\10.2.1\bits\stl_vector.h **** 
 307:c:\program files\daisytoolchain\arm-none-eabi\include\c++\10.2.1\bits\stl_vector.h **** #if __cplusplus >= 201103L
 308:c:\program files\daisytoolchain\arm-none-eabi\include\c++\10.2.1\bits\stl_vector.h ****       _Vector_base(_Vector_base&&) = default;
 309:c:\program files\daisytoolchain\arm-none-eabi\include\c++\10.2.1\bits\stl_vector.h **** 
 310:c:\program files\daisytoolchain\arm-none-eabi\include\c++\10.2.1\bits\stl_vector.h ****       // Kept for ABI compatibility.
 311:c:\program files\daisytoolchain\arm-none-eabi\include\c++\10.2.1\bits\stl_vector.h **** # if !_GLIBCXX_INLINE_VERSION
 312:c:\program files\daisytoolchain\arm-none-eabi\include\c++\10.2.1\bits\stl_vector.h ****       _Vector_base(_Tp_alloc_type&& __a) noexcept
 313:c:\program files\daisytoolchain\arm-none-eabi\include\c++\10.2.1\bits\stl_vector.h ****       : _M_impl(std::move(__a)) { }
 314:c:\program files\daisytoolchain\arm-none-eabi\include\c++\10.2.1\bits\stl_vector.h **** 
 315:c:\program files\daisytoolchain\arm-none-eabi\include\c++\10.2.1\bits\stl_vector.h ****       _Vector_base(_Vector_base&& __x, const allocator_type& __a)
 316:c:\program files\daisytoolchain\arm-none-eabi\include\c++\10.2.1\bits\stl_vector.h ****       : _M_impl(__a)
 317:c:\program files\daisytoolchain\arm-none-eabi\include\c++\10.2.1\bits\stl_vector.h ****       {
 318:c:\program files\daisytoolchain\arm-none-eabi\include\c++\10.2.1\bits\stl_vector.h **** 	if (__x.get_allocator() == __a)
 319:c:\program files\daisytoolchain\arm-none-eabi\include\c++\10.2.1\bits\stl_vector.h **** 	  this->_M_impl._M_swap_data(__x._M_impl);
 320:c:\program files\daisytoolchain\arm-none-eabi\include\c++\10.2.1\bits\stl_vector.h **** 	else
 321:c:\program files\daisytoolchain\arm-none-eabi\include\c++\10.2.1\bits\stl_vector.h **** 	  {
 322:c:\program files\daisytoolchain\arm-none-eabi\include\c++\10.2.1\bits\stl_vector.h **** 	    size_t __n = __x._M_impl._M_finish - __x._M_impl._M_start;
 323:c:\program files\daisytoolchain\arm-none-eabi\include\c++\10.2.1\bits\stl_vector.h **** 	    _M_create_storage(__n);
 324:c:\program files\daisytoolchain\arm-none-eabi\include\c++\10.2.1\bits\stl_vector.h **** 	  }
 325:c:\program files\daisytoolchain\arm-none-eabi\include\c++\10.2.1\bits\stl_vector.h ****       }
 326:c:\program files\daisytoolchain\arm-none-eabi\include\c++\10.2.1\bits\stl_vector.h **** # endif
 327:c:\program files\daisytoolchain\arm-none-eabi\include\c++\10.2.1\bits\stl_vector.h **** 
 328:c:\program files\daisytoolchain\arm-none-eabi\include\c++\10.2.1\bits\stl_vector.h ****       _Vector_base(const allocator_type& __a, _Vector_base&& __x)
 329:c:\program files\daisytoolchain\arm-none-eabi\include\c++\10.2.1\bits\stl_vector.h ****       : _M_impl(_Tp_alloc_type(__a), std::move(__x._M_impl))
 330:c:\program files\daisytoolchain\arm-none-eabi\include\c++\10.2.1\bits\stl_vector.h ****       { }
 331:c:\program files\daisytoolchain\arm-none-eabi\include\c++\10.2.1\bits\stl_vector.h **** #endif
 332:c:\program files\daisytoolchain\arm-none-eabi\include\c++\10.2.1\bits\stl_vector.h **** 
 333:c:\program files\daisytoolchain\arm-none-eabi\include\c++\10.2.1\bits\stl_vector.h ****       ~_Vector_base() _GLIBCXX_NOEXCEPT
 334:c:\program files\daisytoolchain\arm-none-eabi\include\c++\10.2.1\bits\stl_vector.h ****       {
 335:c:\program files\daisytoolchain\arm-none-eabi\include\c++\10.2.1\bits\stl_vector.h **** 	_M_deallocate(_M_impl._M_start,
 336:c:\program files\daisytoolchain\arm-none-eabi\include\c++\10.2.1\bits\stl_vector.h **** 		      _M_impl._M_end_of_storage - _M_impl._M_start);
 337:c:\program files\daisytoolchain\arm-none-eabi\include\c++\10.2.1\bits\stl_vector.h ****       }
 338:c:\program files\daisytoolchain\arm-none-eabi\include\c++\10.2.1\bits\stl_vector.h **** 
 339:c:\program files\daisytoolchain\arm-none-eabi\include\c++\10.2.1\bits\stl_vector.h ****     public:
 340:c:\program files\daisytoolchain\arm-none-eabi\include\c++\10.2.1\bits\stl_vector.h ****       _Vector_impl _M_impl;
 341:c:\program files\daisytoolchain\arm-none-eabi\include\c++\10.2.1\bits\stl_vector.h **** 
 342:c:\program files\daisytoolchain\arm-none-eabi\include\c++\10.2.1\bits\stl_vector.h ****       pointer
 343:c:\program files\daisytoolchain\arm-none-eabi\include\c++\10.2.1\bits\stl_vector.h ****       _M_allocate(size_t __n)
 344:c:\program files\daisytoolchain\arm-none-eabi\include\c++\10.2.1\bits\stl_vector.h ****       {
 345:c:\program files\daisytoolchain\arm-none-eabi\include\c++\10.2.1\bits\stl_vector.h **** 	typedef __gnu_cxx::__alloc_traits<_Tp_alloc_type> _Tr;
 346:c:\program files\daisytoolchain\arm-none-eabi\include\c++\10.2.1\bits\stl_vector.h **** 	return __n != 0 ? _Tr::allocate(_M_impl, __n) : pointer();
 347:c:\program files\daisytoolchain\arm-none-eabi\include\c++\10.2.1\bits\stl_vector.h ****       }
 348:c:\program files\daisytoolchain\arm-none-eabi\include\c++\10.2.1\bits\stl_vector.h **** 
 349:c:\program files\daisytoolchain\arm-none-eabi\include\c++\10.2.1\bits\stl_vector.h ****       void
 350:c:\program files\daisytoolchain\arm-none-eabi\include\c++\10.2.1\bits\stl_vector.h ****       _M_deallocate(pointer __p, size_t __n)
 351:c:\program files\daisytoolchain\arm-none-eabi\include\c++\10.2.1\bits\stl_vector.h ****       {
 352:c:\program files\daisytoolchain\arm-none-eabi\include\c++\10.2.1\bits\stl_vector.h **** 	typedef __gnu_cxx::__alloc_traits<_Tp_alloc_type> _Tr;
 353:c:\program files\daisytoolchain\arm-none-eabi\include\c++\10.2.1\bits\stl_vector.h **** 	if (__p)
 354:c:\program files\daisytoolchain\arm-none-eabi\include\c++\10.2.1\bits\stl_vector.h **** 	  _Tr::deallocate(_M_impl, __p, __n);
 355:c:\program files\daisytoolchain\arm-none-eabi\include\c++\10.2.1\bits\stl_vector.h ****       }
 356:c:\program files\daisytoolchain\arm-none-eabi\include\c++\10.2.1\bits\stl_vector.h **** 
 357:c:\program files\daisytoolchain\arm-none-eabi\include\c++\10.2.1\bits\stl_vector.h ****     protected:
 358:c:\program files\daisytoolchain\arm-none-eabi\include\c++\10.2.1\bits\stl_vector.h ****       void
 359:c:\program files\daisytoolchain\arm-none-eabi\include\c++\10.2.1\bits\stl_vector.h ****       _M_create_storage(size_t __n)
ARM GAS  C:\Users\fv-19\AppData\Local\Temp\ccD6R0Rc.s 			page 17


 360:c:\program files\daisytoolchain\arm-none-eabi\include\c++\10.2.1\bits\stl_vector.h ****       {
 361:c:\program files\daisytoolchain\arm-none-eabi\include\c++\10.2.1\bits\stl_vector.h **** 	this->_M_impl._M_start = this->_M_allocate(__n);
 362:c:\program files\daisytoolchain\arm-none-eabi\include\c++\10.2.1\bits\stl_vector.h **** 	this->_M_impl._M_finish = this->_M_impl._M_start;
 363:c:\program files\daisytoolchain\arm-none-eabi\include\c++\10.2.1\bits\stl_vector.h **** 	this->_M_impl._M_end_of_storage = this->_M_impl._M_start + __n;
 364:c:\program files\daisytoolchain\arm-none-eabi\include\c++\10.2.1\bits\stl_vector.h ****       }
 365:c:\program files\daisytoolchain\arm-none-eabi\include\c++\10.2.1\bits\stl_vector.h ****     };
 366:c:\program files\daisytoolchain\arm-none-eabi\include\c++\10.2.1\bits\stl_vector.h **** 
 367:c:\program files\daisytoolchain\arm-none-eabi\include\c++\10.2.1\bits\stl_vector.h ****   /**
 368:c:\program files\daisytoolchain\arm-none-eabi\include\c++\10.2.1\bits\stl_vector.h ****    *  @brief A standard container which offers fixed time access to
 369:c:\program files\daisytoolchain\arm-none-eabi\include\c++\10.2.1\bits\stl_vector.h ****    *  individual elements in any order.
 370:c:\program files\daisytoolchain\arm-none-eabi\include\c++\10.2.1\bits\stl_vector.h ****    *
 371:c:\program files\daisytoolchain\arm-none-eabi\include\c++\10.2.1\bits\stl_vector.h ****    *  @ingroup sequences
 372:c:\program files\daisytoolchain\arm-none-eabi\include\c++\10.2.1\bits\stl_vector.h ****    *
 373:c:\program files\daisytoolchain\arm-none-eabi\include\c++\10.2.1\bits\stl_vector.h ****    *  @tparam _Tp  Type of element.
 374:c:\program files\daisytoolchain\arm-none-eabi\include\c++\10.2.1\bits\stl_vector.h ****    *  @tparam _Alloc  Allocator type, defaults to allocator<_Tp>.
 375:c:\program files\daisytoolchain\arm-none-eabi\include\c++\10.2.1\bits\stl_vector.h ****    *
 376:c:\program files\daisytoolchain\arm-none-eabi\include\c++\10.2.1\bits\stl_vector.h ****    *  Meets the requirements of a <a href="tables.html#65">container</a>, a
 377:c:\program files\daisytoolchain\arm-none-eabi\include\c++\10.2.1\bits\stl_vector.h ****    *  <a href="tables.html#66">reversible container</a>, and a
 378:c:\program files\daisytoolchain\arm-none-eabi\include\c++\10.2.1\bits\stl_vector.h ****    *  <a href="tables.html#67">sequence</a>, including the
 379:c:\program files\daisytoolchain\arm-none-eabi\include\c++\10.2.1\bits\stl_vector.h ****    *  <a href="tables.html#68">optional sequence requirements</a> with the
 380:c:\program files\daisytoolchain\arm-none-eabi\include\c++\10.2.1\bits\stl_vector.h ****    *  %exception of @c push_front and @c pop_front.
 381:c:\program files\daisytoolchain\arm-none-eabi\include\c++\10.2.1\bits\stl_vector.h ****    *
 382:c:\program files\daisytoolchain\arm-none-eabi\include\c++\10.2.1\bits\stl_vector.h ****    *  In some terminology a %vector can be described as a dynamic
 383:c:\program files\daisytoolchain\arm-none-eabi\include\c++\10.2.1\bits\stl_vector.h ****    *  C-style array, it offers fast and efficient access to individual
 384:c:\program files\daisytoolchain\arm-none-eabi\include\c++\10.2.1\bits\stl_vector.h ****    *  elements in any order and saves the user from worrying about
 385:c:\program files\daisytoolchain\arm-none-eabi\include\c++\10.2.1\bits\stl_vector.h ****    *  memory and size allocation.  Subscripting ( @c [] ) access is
 386:c:\program files\daisytoolchain\arm-none-eabi\include\c++\10.2.1\bits\stl_vector.h ****    *  also provided as with C-style arrays.
 387:c:\program files\daisytoolchain\arm-none-eabi\include\c++\10.2.1\bits\stl_vector.h ****   */
 388:c:\program files\daisytoolchain\arm-none-eabi\include\c++\10.2.1\bits\stl_vector.h ****   template<typename _Tp, typename _Alloc = std::allocator<_Tp> >
 389:c:\program files\daisytoolchain\arm-none-eabi\include\c++\10.2.1\bits\stl_vector.h ****     class vector : protected _Vector_base<_Tp, _Alloc>
 390:c:\program files\daisytoolchain\arm-none-eabi\include\c++\10.2.1\bits\stl_vector.h ****     {
 391:c:\program files\daisytoolchain\arm-none-eabi\include\c++\10.2.1\bits\stl_vector.h **** #ifdef _GLIBCXX_CONCEPT_CHECKS
 392:c:\program files\daisytoolchain\arm-none-eabi\include\c++\10.2.1\bits\stl_vector.h ****       // Concept requirements.
 393:c:\program files\daisytoolchain\arm-none-eabi\include\c++\10.2.1\bits\stl_vector.h ****       typedef typename _Alloc::value_type		_Alloc_value_type;
 394:c:\program files\daisytoolchain\arm-none-eabi\include\c++\10.2.1\bits\stl_vector.h **** # if __cplusplus < 201103L
 395:c:\program files\daisytoolchain\arm-none-eabi\include\c++\10.2.1\bits\stl_vector.h ****       __glibcxx_class_requires(_Tp, _SGIAssignableConcept)
 396:c:\program files\daisytoolchain\arm-none-eabi\include\c++\10.2.1\bits\stl_vector.h **** # endif
 397:c:\program files\daisytoolchain\arm-none-eabi\include\c++\10.2.1\bits\stl_vector.h ****       __glibcxx_class_requires2(_Tp, _Alloc_value_type, _SameTypeConcept)
 398:c:\program files\daisytoolchain\arm-none-eabi\include\c++\10.2.1\bits\stl_vector.h **** #endif
 399:c:\program files\daisytoolchain\arm-none-eabi\include\c++\10.2.1\bits\stl_vector.h **** 
 400:c:\program files\daisytoolchain\arm-none-eabi\include\c++\10.2.1\bits\stl_vector.h **** #if __cplusplus >= 201103L
 401:c:\program files\daisytoolchain\arm-none-eabi\include\c++\10.2.1\bits\stl_vector.h ****       static_assert(is_same<typename remove_cv<_Tp>::type, _Tp>::value,
 402:c:\program files\daisytoolchain\arm-none-eabi\include\c++\10.2.1\bits\stl_vector.h **** 	  "std::vector must have a non-const, non-volatile value_type");
 403:c:\program files\daisytoolchain\arm-none-eabi\include\c++\10.2.1\bits\stl_vector.h **** # if __cplusplus > 201703L || defined __STRICT_ANSI__
 404:c:\program files\daisytoolchain\arm-none-eabi\include\c++\10.2.1\bits\stl_vector.h ****       static_assert(is_same<typename _Alloc::value_type, _Tp>::value,
 405:c:\program files\daisytoolchain\arm-none-eabi\include\c++\10.2.1\bits\stl_vector.h **** 	  "std::vector must have the same value_type as its allocator");
 406:c:\program files\daisytoolchain\arm-none-eabi\include\c++\10.2.1\bits\stl_vector.h **** # endif
 407:c:\program files\daisytoolchain\arm-none-eabi\include\c++\10.2.1\bits\stl_vector.h **** #endif
 408:c:\program files\daisytoolchain\arm-none-eabi\include\c++\10.2.1\bits\stl_vector.h **** 
 409:c:\program files\daisytoolchain\arm-none-eabi\include\c++\10.2.1\bits\stl_vector.h ****       typedef _Vector_base<_Tp, _Alloc>			_Base;
 410:c:\program files\daisytoolchain\arm-none-eabi\include\c++\10.2.1\bits\stl_vector.h ****       typedef typename _Base::_Tp_alloc_type		_Tp_alloc_type;
 411:c:\program files\daisytoolchain\arm-none-eabi\include\c++\10.2.1\bits\stl_vector.h ****       typedef __gnu_cxx::__alloc_traits<_Tp_alloc_type>	_Alloc_traits;
 412:c:\program files\daisytoolchain\arm-none-eabi\include\c++\10.2.1\bits\stl_vector.h **** 
 413:c:\program files\daisytoolchain\arm-none-eabi\include\c++\10.2.1\bits\stl_vector.h ****     public:
 414:c:\program files\daisytoolchain\arm-none-eabi\include\c++\10.2.1\bits\stl_vector.h ****       typedef _Tp					value_type;
 415:c:\program files\daisytoolchain\arm-none-eabi\include\c++\10.2.1\bits\stl_vector.h ****       typedef typename _Base::pointer			pointer;
 416:c:\program files\daisytoolchain\arm-none-eabi\include\c++\10.2.1\bits\stl_vector.h ****       typedef typename _Alloc_traits::const_pointer	const_pointer;
ARM GAS  C:\Users\fv-19\AppData\Local\Temp\ccD6R0Rc.s 			page 18


 417:c:\program files\daisytoolchain\arm-none-eabi\include\c++\10.2.1\bits\stl_vector.h ****       typedef typename _Alloc_traits::reference		reference;
 418:c:\program files\daisytoolchain\arm-none-eabi\include\c++\10.2.1\bits\stl_vector.h ****       typedef typename _Alloc_traits::const_reference	const_reference;
 419:c:\program files\daisytoolchain\arm-none-eabi\include\c++\10.2.1\bits\stl_vector.h ****       typedef __gnu_cxx::__normal_iterator<pointer, vector> iterator;
 420:c:\program files\daisytoolchain\arm-none-eabi\include\c++\10.2.1\bits\stl_vector.h ****       typedef __gnu_cxx::__normal_iterator<const_pointer, vector>
 421:c:\program files\daisytoolchain\arm-none-eabi\include\c++\10.2.1\bits\stl_vector.h ****       const_iterator;
 422:c:\program files\daisytoolchain\arm-none-eabi\include\c++\10.2.1\bits\stl_vector.h ****       typedef std::reverse_iterator<const_iterator>	const_reverse_iterator;
 423:c:\program files\daisytoolchain\arm-none-eabi\include\c++\10.2.1\bits\stl_vector.h ****       typedef std::reverse_iterator<iterator>		reverse_iterator;
 424:c:\program files\daisytoolchain\arm-none-eabi\include\c++\10.2.1\bits\stl_vector.h ****       typedef size_t					size_type;
 425:c:\program files\daisytoolchain\arm-none-eabi\include\c++\10.2.1\bits\stl_vector.h ****       typedef ptrdiff_t					difference_type;
 426:c:\program files\daisytoolchain\arm-none-eabi\include\c++\10.2.1\bits\stl_vector.h ****       typedef _Alloc					allocator_type;
 427:c:\program files\daisytoolchain\arm-none-eabi\include\c++\10.2.1\bits\stl_vector.h **** 
 428:c:\program files\daisytoolchain\arm-none-eabi\include\c++\10.2.1\bits\stl_vector.h ****     private:
 429:c:\program files\daisytoolchain\arm-none-eabi\include\c++\10.2.1\bits\stl_vector.h **** #if __cplusplus >= 201103L
 430:c:\program files\daisytoolchain\arm-none-eabi\include\c++\10.2.1\bits\stl_vector.h ****       static constexpr bool
 431:c:\program files\daisytoolchain\arm-none-eabi\include\c++\10.2.1\bits\stl_vector.h ****       _S_nothrow_relocate(true_type)
 432:c:\program files\daisytoolchain\arm-none-eabi\include\c++\10.2.1\bits\stl_vector.h ****       {
 433:c:\program files\daisytoolchain\arm-none-eabi\include\c++\10.2.1\bits\stl_vector.h **** 	return noexcept(std::__relocate_a(std::declval<pointer>(),
 434:c:\program files\daisytoolchain\arm-none-eabi\include\c++\10.2.1\bits\stl_vector.h **** 					  std::declval<pointer>(),
 435:c:\program files\daisytoolchain\arm-none-eabi\include\c++\10.2.1\bits\stl_vector.h **** 					  std::declval<pointer>(),
 436:c:\program files\daisytoolchain\arm-none-eabi\include\c++\10.2.1\bits\stl_vector.h **** 					  std::declval<_Tp_alloc_type&>()));
 437:c:\program files\daisytoolchain\arm-none-eabi\include\c++\10.2.1\bits\stl_vector.h ****       }
 438:c:\program files\daisytoolchain\arm-none-eabi\include\c++\10.2.1\bits\stl_vector.h **** 
 439:c:\program files\daisytoolchain\arm-none-eabi\include\c++\10.2.1\bits\stl_vector.h ****       static constexpr bool
 440:c:\program files\daisytoolchain\arm-none-eabi\include\c++\10.2.1\bits\stl_vector.h ****       _S_nothrow_relocate(false_type)
 441:c:\program files\daisytoolchain\arm-none-eabi\include\c++\10.2.1\bits\stl_vector.h ****       { return false; }
 442:c:\program files\daisytoolchain\arm-none-eabi\include\c++\10.2.1\bits\stl_vector.h **** 
 443:c:\program files\daisytoolchain\arm-none-eabi\include\c++\10.2.1\bits\stl_vector.h ****       static constexpr bool
 444:c:\program files\daisytoolchain\arm-none-eabi\include\c++\10.2.1\bits\stl_vector.h ****       _S_use_relocate()
 445:c:\program files\daisytoolchain\arm-none-eabi\include\c++\10.2.1\bits\stl_vector.h ****       {
 446:c:\program files\daisytoolchain\arm-none-eabi\include\c++\10.2.1\bits\stl_vector.h **** 	// Instantiating std::__relocate_a might cause an error outside the
 447:c:\program files\daisytoolchain\arm-none-eabi\include\c++\10.2.1\bits\stl_vector.h **** 	// immediate context (in __relocate_object_a's noexcept-specifier),
 448:c:\program files\daisytoolchain\arm-none-eabi\include\c++\10.2.1\bits\stl_vector.h **** 	// so only do it if we know the type can be move-inserted into *this.
 449:c:\program files\daisytoolchain\arm-none-eabi\include\c++\10.2.1\bits\stl_vector.h **** 	return _S_nothrow_relocate(__is_move_insertable<_Tp_alloc_type>{});
 450:c:\program files\daisytoolchain\arm-none-eabi\include\c++\10.2.1\bits\stl_vector.h ****       }
 451:c:\program files\daisytoolchain\arm-none-eabi\include\c++\10.2.1\bits\stl_vector.h **** 
 452:c:\program files\daisytoolchain\arm-none-eabi\include\c++\10.2.1\bits\stl_vector.h ****       static pointer
 453:c:\program files\daisytoolchain\arm-none-eabi\include\c++\10.2.1\bits\stl_vector.h ****       _S_do_relocate(pointer __first, pointer __last, pointer __result,
 454:c:\program files\daisytoolchain\arm-none-eabi\include\c++\10.2.1\bits\stl_vector.h **** 		     _Tp_alloc_type& __alloc, true_type) noexcept
 455:c:\program files\daisytoolchain\arm-none-eabi\include\c++\10.2.1\bits\stl_vector.h ****       {
 456:c:\program files\daisytoolchain\arm-none-eabi\include\c++\10.2.1\bits\stl_vector.h **** 	return std::__relocate_a(__first, __last, __result, __alloc);
 457:c:\program files\daisytoolchain\arm-none-eabi\include\c++\10.2.1\bits\stl_vector.h ****       }
 458:c:\program files\daisytoolchain\arm-none-eabi\include\c++\10.2.1\bits\stl_vector.h **** 
 459:c:\program files\daisytoolchain\arm-none-eabi\include\c++\10.2.1\bits\stl_vector.h ****       static pointer
 460:c:\program files\daisytoolchain\arm-none-eabi\include\c++\10.2.1\bits\stl_vector.h ****       _S_do_relocate(pointer, pointer, pointer __result,
 461:c:\program files\daisytoolchain\arm-none-eabi\include\c++\10.2.1\bits\stl_vector.h **** 		     _Tp_alloc_type&, false_type) noexcept
 462:c:\program files\daisytoolchain\arm-none-eabi\include\c++\10.2.1\bits\stl_vector.h ****       { return __result; }
 463:c:\program files\daisytoolchain\arm-none-eabi\include\c++\10.2.1\bits\stl_vector.h **** 
 464:c:\program files\daisytoolchain\arm-none-eabi\include\c++\10.2.1\bits\stl_vector.h ****       static pointer
 465:c:\program files\daisytoolchain\arm-none-eabi\include\c++\10.2.1\bits\stl_vector.h ****       _S_relocate(pointer __first, pointer __last, pointer __result,
 466:c:\program files\daisytoolchain\arm-none-eabi\include\c++\10.2.1\bits\stl_vector.h **** 		  _Tp_alloc_type& __alloc) noexcept
 467:c:\program files\daisytoolchain\arm-none-eabi\include\c++\10.2.1\bits\stl_vector.h ****       {
 468:c:\program files\daisytoolchain\arm-none-eabi\include\c++\10.2.1\bits\stl_vector.h **** 	using __do_it = __bool_constant<_S_use_relocate()>;
 469:c:\program files\daisytoolchain\arm-none-eabi\include\c++\10.2.1\bits\stl_vector.h **** 	return _S_do_relocate(__first, __last, __result, __alloc, __do_it{});
 470:c:\program files\daisytoolchain\arm-none-eabi\include\c++\10.2.1\bits\stl_vector.h ****       }
 471:c:\program files\daisytoolchain\arm-none-eabi\include\c++\10.2.1\bits\stl_vector.h **** #endif // C++11
 472:c:\program files\daisytoolchain\arm-none-eabi\include\c++\10.2.1\bits\stl_vector.h **** 
 473:c:\program files\daisytoolchain\arm-none-eabi\include\c++\10.2.1\bits\stl_vector.h ****     protected:
ARM GAS  C:\Users\fv-19\AppData\Local\Temp\ccD6R0Rc.s 			page 19


 474:c:\program files\daisytoolchain\arm-none-eabi\include\c++\10.2.1\bits\stl_vector.h ****       using _Base::_M_allocate;
 475:c:\program files\daisytoolchain\arm-none-eabi\include\c++\10.2.1\bits\stl_vector.h ****       using _Base::_M_deallocate;
 476:c:\program files\daisytoolchain\arm-none-eabi\include\c++\10.2.1\bits\stl_vector.h ****       using _Base::_M_impl;
 477:c:\program files\daisytoolchain\arm-none-eabi\include\c++\10.2.1\bits\stl_vector.h ****       using _Base::_M_get_Tp_allocator;
 478:c:\program files\daisytoolchain\arm-none-eabi\include\c++\10.2.1\bits\stl_vector.h **** 
 479:c:\program files\daisytoolchain\arm-none-eabi\include\c++\10.2.1\bits\stl_vector.h ****     public:
 480:c:\program files\daisytoolchain\arm-none-eabi\include\c++\10.2.1\bits\stl_vector.h ****       // [23.2.4.1] construct/copy/destroy
 481:c:\program files\daisytoolchain\arm-none-eabi\include\c++\10.2.1\bits\stl_vector.h ****       // (assign() and get_allocator() are also listed in this section)
 482:c:\program files\daisytoolchain\arm-none-eabi\include\c++\10.2.1\bits\stl_vector.h **** 
 483:c:\program files\daisytoolchain\arm-none-eabi\include\c++\10.2.1\bits\stl_vector.h ****       /**
 484:c:\program files\daisytoolchain\arm-none-eabi\include\c++\10.2.1\bits\stl_vector.h ****        *  @brief  Creates a %vector with no elements.
 485:c:\program files\daisytoolchain\arm-none-eabi\include\c++\10.2.1\bits\stl_vector.h ****        */
 486:c:\program files\daisytoolchain\arm-none-eabi\include\c++\10.2.1\bits\stl_vector.h **** #if __cplusplus >= 201103L
 487:c:\program files\daisytoolchain\arm-none-eabi\include\c++\10.2.1\bits\stl_vector.h ****       vector() = default;
 488:c:\program files\daisytoolchain\arm-none-eabi\include\c++\10.2.1\bits\stl_vector.h **** #else
 489:c:\program files\daisytoolchain\arm-none-eabi\include\c++\10.2.1\bits\stl_vector.h ****       vector() { }
 490:c:\program files\daisytoolchain\arm-none-eabi\include\c++\10.2.1\bits\stl_vector.h **** #endif
 491:c:\program files\daisytoolchain\arm-none-eabi\include\c++\10.2.1\bits\stl_vector.h **** 
 492:c:\program files\daisytoolchain\arm-none-eabi\include\c++\10.2.1\bits\stl_vector.h ****       /**
 493:c:\program files\daisytoolchain\arm-none-eabi\include\c++\10.2.1\bits\stl_vector.h ****        *  @brief  Creates a %vector with no elements.
 494:c:\program files\daisytoolchain\arm-none-eabi\include\c++\10.2.1\bits\stl_vector.h ****        *  @param  __a  An allocator object.
 495:c:\program files\daisytoolchain\arm-none-eabi\include\c++\10.2.1\bits\stl_vector.h ****        */
 496:c:\program files\daisytoolchain\arm-none-eabi\include\c++\10.2.1\bits\stl_vector.h ****       explicit
 497:c:\program files\daisytoolchain\arm-none-eabi\include\c++\10.2.1\bits\stl_vector.h ****       vector(const allocator_type& __a) _GLIBCXX_NOEXCEPT
 498:c:\program files\daisytoolchain\arm-none-eabi\include\c++\10.2.1\bits\stl_vector.h ****       : _Base(__a) { }
 499:c:\program files\daisytoolchain\arm-none-eabi\include\c++\10.2.1\bits\stl_vector.h **** 
 500:c:\program files\daisytoolchain\arm-none-eabi\include\c++\10.2.1\bits\stl_vector.h **** #if __cplusplus >= 201103L
 501:c:\program files\daisytoolchain\arm-none-eabi\include\c++\10.2.1\bits\stl_vector.h ****       /**
 502:c:\program files\daisytoolchain\arm-none-eabi\include\c++\10.2.1\bits\stl_vector.h ****        *  @brief  Creates a %vector with default constructed elements.
 503:c:\program files\daisytoolchain\arm-none-eabi\include\c++\10.2.1\bits\stl_vector.h ****        *  @param  __n  The number of elements to initially create.
 504:c:\program files\daisytoolchain\arm-none-eabi\include\c++\10.2.1\bits\stl_vector.h ****        *  @param  __a  An allocator.
 505:c:\program files\daisytoolchain\arm-none-eabi\include\c++\10.2.1\bits\stl_vector.h ****        *
 506:c:\program files\daisytoolchain\arm-none-eabi\include\c++\10.2.1\bits\stl_vector.h ****        *  This constructor fills the %vector with @a __n default
 507:c:\program files\daisytoolchain\arm-none-eabi\include\c++\10.2.1\bits\stl_vector.h ****        *  constructed elements.
 508:c:\program files\daisytoolchain\arm-none-eabi\include\c++\10.2.1\bits\stl_vector.h ****        */
 509:c:\program files\daisytoolchain\arm-none-eabi\include\c++\10.2.1\bits\stl_vector.h ****       explicit
 510:c:\program files\daisytoolchain\arm-none-eabi\include\c++\10.2.1\bits\stl_vector.h ****       vector(size_type __n, const allocator_type& __a = allocator_type())
 511:c:\program files\daisytoolchain\arm-none-eabi\include\c++\10.2.1\bits\stl_vector.h ****       : _Base(_S_check_init_len(__n, __a), __a)
 512:c:\program files\daisytoolchain\arm-none-eabi\include\c++\10.2.1\bits\stl_vector.h ****       { _M_default_initialize(__n); }
 513:c:\program files\daisytoolchain\arm-none-eabi\include\c++\10.2.1\bits\stl_vector.h **** 
 514:c:\program files\daisytoolchain\arm-none-eabi\include\c++\10.2.1\bits\stl_vector.h ****       /**
 515:c:\program files\daisytoolchain\arm-none-eabi\include\c++\10.2.1\bits\stl_vector.h ****        *  @brief  Creates a %vector with copies of an exemplar element.
 516:c:\program files\daisytoolchain\arm-none-eabi\include\c++\10.2.1\bits\stl_vector.h ****        *  @param  __n  The number of elements to initially create.
 517:c:\program files\daisytoolchain\arm-none-eabi\include\c++\10.2.1\bits\stl_vector.h ****        *  @param  __value  An element to copy.
 518:c:\program files\daisytoolchain\arm-none-eabi\include\c++\10.2.1\bits\stl_vector.h ****        *  @param  __a  An allocator.
 519:c:\program files\daisytoolchain\arm-none-eabi\include\c++\10.2.1\bits\stl_vector.h ****        *
 520:c:\program files\daisytoolchain\arm-none-eabi\include\c++\10.2.1\bits\stl_vector.h ****        *  This constructor fills the %vector with @a __n copies of @a __value.
 521:c:\program files\daisytoolchain\arm-none-eabi\include\c++\10.2.1\bits\stl_vector.h ****        */
 522:c:\program files\daisytoolchain\arm-none-eabi\include\c++\10.2.1\bits\stl_vector.h ****       vector(size_type __n, const value_type& __value,
 523:c:\program files\daisytoolchain\arm-none-eabi\include\c++\10.2.1\bits\stl_vector.h **** 	     const allocator_type& __a = allocator_type())
 524:c:\program files\daisytoolchain\arm-none-eabi\include\c++\10.2.1\bits\stl_vector.h ****       : _Base(_S_check_init_len(__n, __a), __a)
 525:c:\program files\daisytoolchain\arm-none-eabi\include\c++\10.2.1\bits\stl_vector.h ****       { _M_fill_initialize(__n, __value); }
 526:c:\program files\daisytoolchain\arm-none-eabi\include\c++\10.2.1\bits\stl_vector.h **** #else
 527:c:\program files\daisytoolchain\arm-none-eabi\include\c++\10.2.1\bits\stl_vector.h ****       /**
 528:c:\program files\daisytoolchain\arm-none-eabi\include\c++\10.2.1\bits\stl_vector.h ****        *  @brief  Creates a %vector with copies of an exemplar element.
 529:c:\program files\daisytoolchain\arm-none-eabi\include\c++\10.2.1\bits\stl_vector.h ****        *  @param  __n  The number of elements to initially create.
 530:c:\program files\daisytoolchain\arm-none-eabi\include\c++\10.2.1\bits\stl_vector.h ****        *  @param  __value  An element to copy.
ARM GAS  C:\Users\fv-19\AppData\Local\Temp\ccD6R0Rc.s 			page 20


 531:c:\program files\daisytoolchain\arm-none-eabi\include\c++\10.2.1\bits\stl_vector.h ****        *  @param  __a  An allocator.
 532:c:\program files\daisytoolchain\arm-none-eabi\include\c++\10.2.1\bits\stl_vector.h ****        *
 533:c:\program files\daisytoolchain\arm-none-eabi\include\c++\10.2.1\bits\stl_vector.h ****        *  This constructor fills the %vector with @a __n copies of @a __value.
 534:c:\program files\daisytoolchain\arm-none-eabi\include\c++\10.2.1\bits\stl_vector.h ****        */
 535:c:\program files\daisytoolchain\arm-none-eabi\include\c++\10.2.1\bits\stl_vector.h ****       explicit
 536:c:\program files\daisytoolchain\arm-none-eabi\include\c++\10.2.1\bits\stl_vector.h ****       vector(size_type __n, const value_type& __value = value_type(),
 537:c:\program files\daisytoolchain\arm-none-eabi\include\c++\10.2.1\bits\stl_vector.h **** 	     const allocator_type& __a = allocator_type())
 538:c:\program files\daisytoolchain\arm-none-eabi\include\c++\10.2.1\bits\stl_vector.h ****       : _Base(_S_check_init_len(__n, __a), __a)
 539:c:\program files\daisytoolchain\arm-none-eabi\include\c++\10.2.1\bits\stl_vector.h ****       { _M_fill_initialize(__n, __value); }
 540:c:\program files\daisytoolchain\arm-none-eabi\include\c++\10.2.1\bits\stl_vector.h **** #endif
 541:c:\program files\daisytoolchain\arm-none-eabi\include\c++\10.2.1\bits\stl_vector.h **** 
 542:c:\program files\daisytoolchain\arm-none-eabi\include\c++\10.2.1\bits\stl_vector.h ****       /**
 543:c:\program files\daisytoolchain\arm-none-eabi\include\c++\10.2.1\bits\stl_vector.h ****        *  @brief  %Vector copy constructor.
 544:c:\program files\daisytoolchain\arm-none-eabi\include\c++\10.2.1\bits\stl_vector.h ****        *  @param  __x  A %vector of identical element and allocator types.
 545:c:\program files\daisytoolchain\arm-none-eabi\include\c++\10.2.1\bits\stl_vector.h ****        *
 546:c:\program files\daisytoolchain\arm-none-eabi\include\c++\10.2.1\bits\stl_vector.h ****        *  All the elements of @a __x are copied, but any unused capacity in
 547:c:\program files\daisytoolchain\arm-none-eabi\include\c++\10.2.1\bits\stl_vector.h ****        *  @a __x  will not be copied
 548:c:\program files\daisytoolchain\arm-none-eabi\include\c++\10.2.1\bits\stl_vector.h ****        *  (i.e. capacity() == size() in the new %vector).
 549:c:\program files\daisytoolchain\arm-none-eabi\include\c++\10.2.1\bits\stl_vector.h ****        *
 550:c:\program files\daisytoolchain\arm-none-eabi\include\c++\10.2.1\bits\stl_vector.h ****        *  The newly-created %vector uses a copy of the allocator object used
 551:c:\program files\daisytoolchain\arm-none-eabi\include\c++\10.2.1\bits\stl_vector.h ****        *  by @a __x (unless the allocator traits dictate a different object).
 552:c:\program files\daisytoolchain\arm-none-eabi\include\c++\10.2.1\bits\stl_vector.h ****        */
 553:c:\program files\daisytoolchain\arm-none-eabi\include\c++\10.2.1\bits\stl_vector.h ****       vector(const vector& __x)
 554:c:\program files\daisytoolchain\arm-none-eabi\include\c++\10.2.1\bits\stl_vector.h ****       : _Base(__x.size(),
 555:c:\program files\daisytoolchain\arm-none-eabi\include\c++\10.2.1\bits\stl_vector.h **** 	_Alloc_traits::_S_select_on_copy(__x._M_get_Tp_allocator()))
 556:c:\program files\daisytoolchain\arm-none-eabi\include\c++\10.2.1\bits\stl_vector.h ****       {
 557:c:\program files\daisytoolchain\arm-none-eabi\include\c++\10.2.1\bits\stl_vector.h **** 	this->_M_impl._M_finish =
 558:c:\program files\daisytoolchain\arm-none-eabi\include\c++\10.2.1\bits\stl_vector.h **** 	  std::__uninitialized_copy_a(__x.begin(), __x.end(),
 559:c:\program files\daisytoolchain\arm-none-eabi\include\c++\10.2.1\bits\stl_vector.h **** 				      this->_M_impl._M_start,
 560:c:\program files\daisytoolchain\arm-none-eabi\include\c++\10.2.1\bits\stl_vector.h **** 				      _M_get_Tp_allocator());
 561:c:\program files\daisytoolchain\arm-none-eabi\include\c++\10.2.1\bits\stl_vector.h ****       }
 562:c:\program files\daisytoolchain\arm-none-eabi\include\c++\10.2.1\bits\stl_vector.h **** 
 563:c:\program files\daisytoolchain\arm-none-eabi\include\c++\10.2.1\bits\stl_vector.h **** #if __cplusplus >= 201103L
 564:c:\program files\daisytoolchain\arm-none-eabi\include\c++\10.2.1\bits\stl_vector.h ****       /**
 565:c:\program files\daisytoolchain\arm-none-eabi\include\c++\10.2.1\bits\stl_vector.h ****        *  @brief  %Vector move constructor.
 566:c:\program files\daisytoolchain\arm-none-eabi\include\c++\10.2.1\bits\stl_vector.h ****        *
 567:c:\program files\daisytoolchain\arm-none-eabi\include\c++\10.2.1\bits\stl_vector.h ****        *  The newly-created %vector contains the exact contents of the
 568:c:\program files\daisytoolchain\arm-none-eabi\include\c++\10.2.1\bits\stl_vector.h ****        *  moved instance.
 569:c:\program files\daisytoolchain\arm-none-eabi\include\c++\10.2.1\bits\stl_vector.h ****        *  The contents of the moved instance are a valid, but unspecified
 570:c:\program files\daisytoolchain\arm-none-eabi\include\c++\10.2.1\bits\stl_vector.h ****        *  %vector.
 571:c:\program files\daisytoolchain\arm-none-eabi\include\c++\10.2.1\bits\stl_vector.h ****        */
 572:c:\program files\daisytoolchain\arm-none-eabi\include\c++\10.2.1\bits\stl_vector.h ****       vector(vector&&) noexcept = default;
 573:c:\program files\daisytoolchain\arm-none-eabi\include\c++\10.2.1\bits\stl_vector.h **** 
 574:c:\program files\daisytoolchain\arm-none-eabi\include\c++\10.2.1\bits\stl_vector.h ****       /// Copy constructor with alternative allocator
 575:c:\program files\daisytoolchain\arm-none-eabi\include\c++\10.2.1\bits\stl_vector.h ****       vector(const vector& __x, const allocator_type& __a)
 576:c:\program files\daisytoolchain\arm-none-eabi\include\c++\10.2.1\bits\stl_vector.h ****       : _Base(__x.size(), __a)
 577:c:\program files\daisytoolchain\arm-none-eabi\include\c++\10.2.1\bits\stl_vector.h ****       {
 578:c:\program files\daisytoolchain\arm-none-eabi\include\c++\10.2.1\bits\stl_vector.h **** 	this->_M_impl._M_finish =
 579:c:\program files\daisytoolchain\arm-none-eabi\include\c++\10.2.1\bits\stl_vector.h **** 	  std::__uninitialized_copy_a(__x.begin(), __x.end(),
 580:c:\program files\daisytoolchain\arm-none-eabi\include\c++\10.2.1\bits\stl_vector.h **** 				      this->_M_impl._M_start,
 581:c:\program files\daisytoolchain\arm-none-eabi\include\c++\10.2.1\bits\stl_vector.h **** 				      _M_get_Tp_allocator());
 582:c:\program files\daisytoolchain\arm-none-eabi\include\c++\10.2.1\bits\stl_vector.h ****       }
 583:c:\program files\daisytoolchain\arm-none-eabi\include\c++\10.2.1\bits\stl_vector.h **** 
 584:c:\program files\daisytoolchain\arm-none-eabi\include\c++\10.2.1\bits\stl_vector.h ****     private:
 585:c:\program files\daisytoolchain\arm-none-eabi\include\c++\10.2.1\bits\stl_vector.h ****       vector(vector&& __rv, const allocator_type& __m, true_type) noexcept
 586:c:\program files\daisytoolchain\arm-none-eabi\include\c++\10.2.1\bits\stl_vector.h ****       : _Base(__m, std::move(__rv))
 587:c:\program files\daisytoolchain\arm-none-eabi\include\c++\10.2.1\bits\stl_vector.h ****       { }
ARM GAS  C:\Users\fv-19\AppData\Local\Temp\ccD6R0Rc.s 			page 21


 588:c:\program files\daisytoolchain\arm-none-eabi\include\c++\10.2.1\bits\stl_vector.h **** 
 589:c:\program files\daisytoolchain\arm-none-eabi\include\c++\10.2.1\bits\stl_vector.h ****       vector(vector&& __rv, const allocator_type& __m, false_type)
 590:c:\program files\daisytoolchain\arm-none-eabi\include\c++\10.2.1\bits\stl_vector.h ****       : _Base(__m)
 591:c:\program files\daisytoolchain\arm-none-eabi\include\c++\10.2.1\bits\stl_vector.h ****       {
 592:c:\program files\daisytoolchain\arm-none-eabi\include\c++\10.2.1\bits\stl_vector.h **** 	if (__rv.get_allocator() == __m)
 593:c:\program files\daisytoolchain\arm-none-eabi\include\c++\10.2.1\bits\stl_vector.h **** 	  this->_M_impl._M_swap_data(__rv._M_impl);
 594:c:\program files\daisytoolchain\arm-none-eabi\include\c++\10.2.1\bits\stl_vector.h **** 	else if (!__rv.empty())
 595:c:\program files\daisytoolchain\arm-none-eabi\include\c++\10.2.1\bits\stl_vector.h **** 	  {
 596:c:\program files\daisytoolchain\arm-none-eabi\include\c++\10.2.1\bits\stl_vector.h **** 	    this->_M_create_storage(__rv.size());
 597:c:\program files\daisytoolchain\arm-none-eabi\include\c++\10.2.1\bits\stl_vector.h **** 	    this->_M_impl._M_finish =
 598:c:\program files\daisytoolchain\arm-none-eabi\include\c++\10.2.1\bits\stl_vector.h **** 	      std::__uninitialized_move_a(__rv.begin(), __rv.end(),
 599:c:\program files\daisytoolchain\arm-none-eabi\include\c++\10.2.1\bits\stl_vector.h **** 					  this->_M_impl._M_start,
 600:c:\program files\daisytoolchain\arm-none-eabi\include\c++\10.2.1\bits\stl_vector.h **** 					  _M_get_Tp_allocator());
 601:c:\program files\daisytoolchain\arm-none-eabi\include\c++\10.2.1\bits\stl_vector.h **** 	    __rv.clear();
 602:c:\program files\daisytoolchain\arm-none-eabi\include\c++\10.2.1\bits\stl_vector.h **** 	  }
 603:c:\program files\daisytoolchain\arm-none-eabi\include\c++\10.2.1\bits\stl_vector.h ****       }
 604:c:\program files\daisytoolchain\arm-none-eabi\include\c++\10.2.1\bits\stl_vector.h **** 
 605:c:\program files\daisytoolchain\arm-none-eabi\include\c++\10.2.1\bits\stl_vector.h ****     public:
 606:c:\program files\daisytoolchain\arm-none-eabi\include\c++\10.2.1\bits\stl_vector.h ****       /// Move constructor with alternative allocator
 607:c:\program files\daisytoolchain\arm-none-eabi\include\c++\10.2.1\bits\stl_vector.h ****       vector(vector&& __rv, const allocator_type& __m)
 608:c:\program files\daisytoolchain\arm-none-eabi\include\c++\10.2.1\bits\stl_vector.h ****       noexcept( noexcept(
 609:c:\program files\daisytoolchain\arm-none-eabi\include\c++\10.2.1\bits\stl_vector.h **** 	vector(std::declval<vector&&>(), std::declval<const allocator_type&>(),
 610:c:\program files\daisytoolchain\arm-none-eabi\include\c++\10.2.1\bits\stl_vector.h **** 	       std::declval<typename _Alloc_traits::is_always_equal>())) )
 611:c:\program files\daisytoolchain\arm-none-eabi\include\c++\10.2.1\bits\stl_vector.h ****       : vector(std::move(__rv), __m, typename _Alloc_traits::is_always_equal{})
 612:c:\program files\daisytoolchain\arm-none-eabi\include\c++\10.2.1\bits\stl_vector.h ****       { }
 613:c:\program files\daisytoolchain\arm-none-eabi\include\c++\10.2.1\bits\stl_vector.h **** 
 614:c:\program files\daisytoolchain\arm-none-eabi\include\c++\10.2.1\bits\stl_vector.h ****       /**
 615:c:\program files\daisytoolchain\arm-none-eabi\include\c++\10.2.1\bits\stl_vector.h ****        *  @brief  Builds a %vector from an initializer list.
 616:c:\program files\daisytoolchain\arm-none-eabi\include\c++\10.2.1\bits\stl_vector.h ****        *  @param  __l  An initializer_list.
 617:c:\program files\daisytoolchain\arm-none-eabi\include\c++\10.2.1\bits\stl_vector.h ****        *  @param  __a  An allocator.
 618:c:\program files\daisytoolchain\arm-none-eabi\include\c++\10.2.1\bits\stl_vector.h ****        *
 619:c:\program files\daisytoolchain\arm-none-eabi\include\c++\10.2.1\bits\stl_vector.h ****        *  Create a %vector consisting of copies of the elements in the
 620:c:\program files\daisytoolchain\arm-none-eabi\include\c++\10.2.1\bits\stl_vector.h ****        *  initializer_list @a __l.
 621:c:\program files\daisytoolchain\arm-none-eabi\include\c++\10.2.1\bits\stl_vector.h ****        *
 622:c:\program files\daisytoolchain\arm-none-eabi\include\c++\10.2.1\bits\stl_vector.h ****        *  This will call the element type's copy constructor N times
 623:c:\program files\daisytoolchain\arm-none-eabi\include\c++\10.2.1\bits\stl_vector.h ****        *  (where N is @a __l.size()) and do no memory reallocation.
 624:c:\program files\daisytoolchain\arm-none-eabi\include\c++\10.2.1\bits\stl_vector.h ****        */
 625:c:\program files\daisytoolchain\arm-none-eabi\include\c++\10.2.1\bits\stl_vector.h ****       vector(initializer_list<value_type> __l,
 626:c:\program files\daisytoolchain\arm-none-eabi\include\c++\10.2.1\bits\stl_vector.h **** 	     const allocator_type& __a = allocator_type())
 627:c:\program files\daisytoolchain\arm-none-eabi\include\c++\10.2.1\bits\stl_vector.h ****       : _Base(__a)
 628:c:\program files\daisytoolchain\arm-none-eabi\include\c++\10.2.1\bits\stl_vector.h ****       {
 629:c:\program files\daisytoolchain\arm-none-eabi\include\c++\10.2.1\bits\stl_vector.h **** 	_M_range_initialize(__l.begin(), __l.end(),
 630:c:\program files\daisytoolchain\arm-none-eabi\include\c++\10.2.1\bits\stl_vector.h **** 			    random_access_iterator_tag());
 631:c:\program files\daisytoolchain\arm-none-eabi\include\c++\10.2.1\bits\stl_vector.h ****       }
 632:c:\program files\daisytoolchain\arm-none-eabi\include\c++\10.2.1\bits\stl_vector.h **** #endif
 633:c:\program files\daisytoolchain\arm-none-eabi\include\c++\10.2.1\bits\stl_vector.h **** 
 634:c:\program files\daisytoolchain\arm-none-eabi\include\c++\10.2.1\bits\stl_vector.h ****       /**
 635:c:\program files\daisytoolchain\arm-none-eabi\include\c++\10.2.1\bits\stl_vector.h ****        *  @brief  Builds a %vector from a range.
 636:c:\program files\daisytoolchain\arm-none-eabi\include\c++\10.2.1\bits\stl_vector.h ****        *  @param  __first  An input iterator.
 637:c:\program files\daisytoolchain\arm-none-eabi\include\c++\10.2.1\bits\stl_vector.h ****        *  @param  __last  An input iterator.
 638:c:\program files\daisytoolchain\arm-none-eabi\include\c++\10.2.1\bits\stl_vector.h ****        *  @param  __a  An allocator.
 639:c:\program files\daisytoolchain\arm-none-eabi\include\c++\10.2.1\bits\stl_vector.h ****        *
 640:c:\program files\daisytoolchain\arm-none-eabi\include\c++\10.2.1\bits\stl_vector.h ****        *  Create a %vector consisting of copies of the elements from
 641:c:\program files\daisytoolchain\arm-none-eabi\include\c++\10.2.1\bits\stl_vector.h ****        *  [first,last).
 642:c:\program files\daisytoolchain\arm-none-eabi\include\c++\10.2.1\bits\stl_vector.h ****        *
 643:c:\program files\daisytoolchain\arm-none-eabi\include\c++\10.2.1\bits\stl_vector.h ****        *  If the iterators are forward, bidirectional, or
 644:c:\program files\daisytoolchain\arm-none-eabi\include\c++\10.2.1\bits\stl_vector.h ****        *  random-access, then this will call the elements' copy
ARM GAS  C:\Users\fv-19\AppData\Local\Temp\ccD6R0Rc.s 			page 22


 645:c:\program files\daisytoolchain\arm-none-eabi\include\c++\10.2.1\bits\stl_vector.h ****        *  constructor N times (where N is distance(first,last)) and do
 646:c:\program files\daisytoolchain\arm-none-eabi\include\c++\10.2.1\bits\stl_vector.h ****        *  no memory reallocation.  But if only input iterators are
 647:c:\program files\daisytoolchain\arm-none-eabi\include\c++\10.2.1\bits\stl_vector.h ****        *  used, then this will do at most 2N calls to the copy
 648:c:\program files\daisytoolchain\arm-none-eabi\include\c++\10.2.1\bits\stl_vector.h ****        *  constructor, and logN memory reallocations.
 649:c:\program files\daisytoolchain\arm-none-eabi\include\c++\10.2.1\bits\stl_vector.h ****        */
 650:c:\program files\daisytoolchain\arm-none-eabi\include\c++\10.2.1\bits\stl_vector.h **** #if __cplusplus >= 201103L
 651:c:\program files\daisytoolchain\arm-none-eabi\include\c++\10.2.1\bits\stl_vector.h ****       template<typename _InputIterator,
 652:c:\program files\daisytoolchain\arm-none-eabi\include\c++\10.2.1\bits\stl_vector.h **** 	       typename = std::_RequireInputIter<_InputIterator>>
 653:c:\program files\daisytoolchain\arm-none-eabi\include\c++\10.2.1\bits\stl_vector.h **** 	vector(_InputIterator __first, _InputIterator __last,
 654:c:\program files\daisytoolchain\arm-none-eabi\include\c++\10.2.1\bits\stl_vector.h **** 	       const allocator_type& __a = allocator_type())
 655:c:\program files\daisytoolchain\arm-none-eabi\include\c++\10.2.1\bits\stl_vector.h **** 	: _Base(__a)
 656:c:\program files\daisytoolchain\arm-none-eabi\include\c++\10.2.1\bits\stl_vector.h **** 	{
 657:c:\program files\daisytoolchain\arm-none-eabi\include\c++\10.2.1\bits\stl_vector.h **** 	  _M_range_initialize(__first, __last,
 658:c:\program files\daisytoolchain\arm-none-eabi\include\c++\10.2.1\bits\stl_vector.h **** 			      std::__iterator_category(__first));
 659:c:\program files\daisytoolchain\arm-none-eabi\include\c++\10.2.1\bits\stl_vector.h **** 	}
 660:c:\program files\daisytoolchain\arm-none-eabi\include\c++\10.2.1\bits\stl_vector.h **** #else
 661:c:\program files\daisytoolchain\arm-none-eabi\include\c++\10.2.1\bits\stl_vector.h ****       template<typename _InputIterator>
 662:c:\program files\daisytoolchain\arm-none-eabi\include\c++\10.2.1\bits\stl_vector.h **** 	vector(_InputIterator __first, _InputIterator __last,
 663:c:\program files\daisytoolchain\arm-none-eabi\include\c++\10.2.1\bits\stl_vector.h **** 	       const allocator_type& __a = allocator_type())
 664:c:\program files\daisytoolchain\arm-none-eabi\include\c++\10.2.1\bits\stl_vector.h **** 	: _Base(__a)
 665:c:\program files\daisytoolchain\arm-none-eabi\include\c++\10.2.1\bits\stl_vector.h **** 	{
 666:c:\program files\daisytoolchain\arm-none-eabi\include\c++\10.2.1\bits\stl_vector.h **** 	  // Check whether it's an integral type.  If so, it's not an iterator.
 667:c:\program files\daisytoolchain\arm-none-eabi\include\c++\10.2.1\bits\stl_vector.h **** 	  typedef typename std::__is_integer<_InputIterator>::__type _Integral;
 668:c:\program files\daisytoolchain\arm-none-eabi\include\c++\10.2.1\bits\stl_vector.h **** 	  _M_initialize_dispatch(__first, __last, _Integral());
 669:c:\program files\daisytoolchain\arm-none-eabi\include\c++\10.2.1\bits\stl_vector.h **** 	}
 670:c:\program files\daisytoolchain\arm-none-eabi\include\c++\10.2.1\bits\stl_vector.h **** #endif
 671:c:\program files\daisytoolchain\arm-none-eabi\include\c++\10.2.1\bits\stl_vector.h **** 
 672:c:\program files\daisytoolchain\arm-none-eabi\include\c++\10.2.1\bits\stl_vector.h ****       /**
 673:c:\program files\daisytoolchain\arm-none-eabi\include\c++\10.2.1\bits\stl_vector.h ****        *  The dtor only erases the elements, and note that if the
 674:c:\program files\daisytoolchain\arm-none-eabi\include\c++\10.2.1\bits\stl_vector.h ****        *  elements themselves are pointers, the pointed-to memory is
 675:c:\program files\daisytoolchain\arm-none-eabi\include\c++\10.2.1\bits\stl_vector.h ****        *  not touched in any way.  Managing the pointer is the user's
 676:c:\program files\daisytoolchain\arm-none-eabi\include\c++\10.2.1\bits\stl_vector.h ****        *  responsibility.
 677:c:\program files\daisytoolchain\arm-none-eabi\include\c++\10.2.1\bits\stl_vector.h ****        */
 678:c:\program files\daisytoolchain\arm-none-eabi\include\c++\10.2.1\bits\stl_vector.h ****       ~vector() _GLIBCXX_NOEXCEPT
 679:c:\program files\daisytoolchain\arm-none-eabi\include\c++\10.2.1\bits\stl_vector.h ****       {
 680:c:\program files\daisytoolchain\arm-none-eabi\include\c++\10.2.1\bits\stl_vector.h **** 	std::_Destroy(this->_M_impl._M_start, this->_M_impl._M_finish,
 681:c:\program files\daisytoolchain\arm-none-eabi\include\c++\10.2.1\bits\stl_vector.h **** 		      _M_get_Tp_allocator());
 682:c:\program files\daisytoolchain\arm-none-eabi\include\c++\10.2.1\bits\stl_vector.h **** 	_GLIBCXX_ASAN_ANNOTATE_BEFORE_DEALLOC;
 683:c:\program files\daisytoolchain\arm-none-eabi\include\c++\10.2.1\bits\stl_vector.h ****       }
 684:c:\program files\daisytoolchain\arm-none-eabi\include\c++\10.2.1\bits\stl_vector.h **** 
 685:c:\program files\daisytoolchain\arm-none-eabi\include\c++\10.2.1\bits\stl_vector.h ****       /**
 686:c:\program files\daisytoolchain\arm-none-eabi\include\c++\10.2.1\bits\stl_vector.h ****        *  @brief  %Vector assignment operator.
 687:c:\program files\daisytoolchain\arm-none-eabi\include\c++\10.2.1\bits\stl_vector.h ****        *  @param  __x  A %vector of identical element and allocator types.
 688:c:\program files\daisytoolchain\arm-none-eabi\include\c++\10.2.1\bits\stl_vector.h ****        *
 689:c:\program files\daisytoolchain\arm-none-eabi\include\c++\10.2.1\bits\stl_vector.h ****        *  All the elements of @a __x are copied, but any unused capacity in
 690:c:\program files\daisytoolchain\arm-none-eabi\include\c++\10.2.1\bits\stl_vector.h ****        *  @a __x will not be copied.
 691:c:\program files\daisytoolchain\arm-none-eabi\include\c++\10.2.1\bits\stl_vector.h ****        *
 692:c:\program files\daisytoolchain\arm-none-eabi\include\c++\10.2.1\bits\stl_vector.h ****        *  Whether the allocator is copied depends on the allocator traits.
 693:c:\program files\daisytoolchain\arm-none-eabi\include\c++\10.2.1\bits\stl_vector.h ****        */
 694:c:\program files\daisytoolchain\arm-none-eabi\include\c++\10.2.1\bits\stl_vector.h ****       vector&
 695:c:\program files\daisytoolchain\arm-none-eabi\include\c++\10.2.1\bits\stl_vector.h ****       operator=(const vector& __x);
 696:c:\program files\daisytoolchain\arm-none-eabi\include\c++\10.2.1\bits\stl_vector.h **** 
 697:c:\program files\daisytoolchain\arm-none-eabi\include\c++\10.2.1\bits\stl_vector.h **** #if __cplusplus >= 201103L
 698:c:\program files\daisytoolchain\arm-none-eabi\include\c++\10.2.1\bits\stl_vector.h ****       /**
 699:c:\program files\daisytoolchain\arm-none-eabi\include\c++\10.2.1\bits\stl_vector.h ****        *  @brief  %Vector move assignment operator.
 700:c:\program files\daisytoolchain\arm-none-eabi\include\c++\10.2.1\bits\stl_vector.h ****        *  @param  __x  A %vector of identical element and allocator types.
 701:c:\program files\daisytoolchain\arm-none-eabi\include\c++\10.2.1\bits\stl_vector.h ****        *
ARM GAS  C:\Users\fv-19\AppData\Local\Temp\ccD6R0Rc.s 			page 23


 702:c:\program files\daisytoolchain\arm-none-eabi\include\c++\10.2.1\bits\stl_vector.h ****        *  The contents of @a __x are moved into this %vector (without copying,
 703:c:\program files\daisytoolchain\arm-none-eabi\include\c++\10.2.1\bits\stl_vector.h ****        *  if the allocators permit it).
 704:c:\program files\daisytoolchain\arm-none-eabi\include\c++\10.2.1\bits\stl_vector.h ****        *  Afterwards @a __x is a valid, but unspecified %vector.
 705:c:\program files\daisytoolchain\arm-none-eabi\include\c++\10.2.1\bits\stl_vector.h ****        *
 706:c:\program files\daisytoolchain\arm-none-eabi\include\c++\10.2.1\bits\stl_vector.h ****        *  Whether the allocator is moved depends on the allocator traits.
 707:c:\program files\daisytoolchain\arm-none-eabi\include\c++\10.2.1\bits\stl_vector.h ****        */
 708:c:\program files\daisytoolchain\arm-none-eabi\include\c++\10.2.1\bits\stl_vector.h ****       vector&
 709:c:\program files\daisytoolchain\arm-none-eabi\include\c++\10.2.1\bits\stl_vector.h ****       operator=(vector&& __x) noexcept(_Alloc_traits::_S_nothrow_move())
 710:c:\program files\daisytoolchain\arm-none-eabi\include\c++\10.2.1\bits\stl_vector.h ****       {
 711:c:\program files\daisytoolchain\arm-none-eabi\include\c++\10.2.1\bits\stl_vector.h **** 	constexpr bool __move_storage =
 712:c:\program files\daisytoolchain\arm-none-eabi\include\c++\10.2.1\bits\stl_vector.h **** 	  _Alloc_traits::_S_propagate_on_move_assign()
 713:c:\program files\daisytoolchain\arm-none-eabi\include\c++\10.2.1\bits\stl_vector.h **** 	  || _Alloc_traits::_S_always_equal();
 714:c:\program files\daisytoolchain\arm-none-eabi\include\c++\10.2.1\bits\stl_vector.h **** 	_M_move_assign(std::move(__x), __bool_constant<__move_storage>());
 715:c:\program files\daisytoolchain\arm-none-eabi\include\c++\10.2.1\bits\stl_vector.h **** 	return *this;
 716:c:\program files\daisytoolchain\arm-none-eabi\include\c++\10.2.1\bits\stl_vector.h ****       }
 717:c:\program files\daisytoolchain\arm-none-eabi\include\c++\10.2.1\bits\stl_vector.h **** 
 718:c:\program files\daisytoolchain\arm-none-eabi\include\c++\10.2.1\bits\stl_vector.h ****       /**
 719:c:\program files\daisytoolchain\arm-none-eabi\include\c++\10.2.1\bits\stl_vector.h ****        *  @brief  %Vector list assignment operator.
 720:c:\program files\daisytoolchain\arm-none-eabi\include\c++\10.2.1\bits\stl_vector.h ****        *  @param  __l  An initializer_list.
 721:c:\program files\daisytoolchain\arm-none-eabi\include\c++\10.2.1\bits\stl_vector.h ****        *
 722:c:\program files\daisytoolchain\arm-none-eabi\include\c++\10.2.1\bits\stl_vector.h ****        *  This function fills a %vector with copies of the elements in the
 723:c:\program files\daisytoolchain\arm-none-eabi\include\c++\10.2.1\bits\stl_vector.h ****        *  initializer list @a __l.
 724:c:\program files\daisytoolchain\arm-none-eabi\include\c++\10.2.1\bits\stl_vector.h ****        *
 725:c:\program files\daisytoolchain\arm-none-eabi\include\c++\10.2.1\bits\stl_vector.h ****        *  Note that the assignment completely changes the %vector and
 726:c:\program files\daisytoolchain\arm-none-eabi\include\c++\10.2.1\bits\stl_vector.h ****        *  that the resulting %vector's size is the same as the number
 727:c:\program files\daisytoolchain\arm-none-eabi\include\c++\10.2.1\bits\stl_vector.h ****        *  of elements assigned.
 728:c:\program files\daisytoolchain\arm-none-eabi\include\c++\10.2.1\bits\stl_vector.h ****        */
 729:c:\program files\daisytoolchain\arm-none-eabi\include\c++\10.2.1\bits\stl_vector.h ****       vector&
 730:c:\program files\daisytoolchain\arm-none-eabi\include\c++\10.2.1\bits\stl_vector.h ****       operator=(initializer_list<value_type> __l)
 731:c:\program files\daisytoolchain\arm-none-eabi\include\c++\10.2.1\bits\stl_vector.h ****       {
 732:c:\program files\daisytoolchain\arm-none-eabi\include\c++\10.2.1\bits\stl_vector.h **** 	this->_M_assign_aux(__l.begin(), __l.end(),
 733:c:\program files\daisytoolchain\arm-none-eabi\include\c++\10.2.1\bits\stl_vector.h **** 			    random_access_iterator_tag());
 734:c:\program files\daisytoolchain\arm-none-eabi\include\c++\10.2.1\bits\stl_vector.h **** 	return *this;
 735:c:\program files\daisytoolchain\arm-none-eabi\include\c++\10.2.1\bits\stl_vector.h ****       }
 736:c:\program files\daisytoolchain\arm-none-eabi\include\c++\10.2.1\bits\stl_vector.h **** #endif
 737:c:\program files\daisytoolchain\arm-none-eabi\include\c++\10.2.1\bits\stl_vector.h **** 
 738:c:\program files\daisytoolchain\arm-none-eabi\include\c++\10.2.1\bits\stl_vector.h ****       /**
 739:c:\program files\daisytoolchain\arm-none-eabi\include\c++\10.2.1\bits\stl_vector.h ****        *  @brief  Assigns a given value to a %vector.
 740:c:\program files\daisytoolchain\arm-none-eabi\include\c++\10.2.1\bits\stl_vector.h ****        *  @param  __n  Number of elements to be assigned.
 741:c:\program files\daisytoolchain\arm-none-eabi\include\c++\10.2.1\bits\stl_vector.h ****        *  @param  __val  Value to be assigned.
 742:c:\program files\daisytoolchain\arm-none-eabi\include\c++\10.2.1\bits\stl_vector.h ****        *
 743:c:\program files\daisytoolchain\arm-none-eabi\include\c++\10.2.1\bits\stl_vector.h ****        *  This function fills a %vector with @a __n copies of the given
 744:c:\program files\daisytoolchain\arm-none-eabi\include\c++\10.2.1\bits\stl_vector.h ****        *  value.  Note that the assignment completely changes the
 745:c:\program files\daisytoolchain\arm-none-eabi\include\c++\10.2.1\bits\stl_vector.h ****        *  %vector and that the resulting %vector's size is the same as
 746:c:\program files\daisytoolchain\arm-none-eabi\include\c++\10.2.1\bits\stl_vector.h ****        *  the number of elements assigned.
 747:c:\program files\daisytoolchain\arm-none-eabi\include\c++\10.2.1\bits\stl_vector.h ****        */
 748:c:\program files\daisytoolchain\arm-none-eabi\include\c++\10.2.1\bits\stl_vector.h ****       void
 749:c:\program files\daisytoolchain\arm-none-eabi\include\c++\10.2.1\bits\stl_vector.h ****       assign(size_type __n, const value_type& __val)
 750:c:\program files\daisytoolchain\arm-none-eabi\include\c++\10.2.1\bits\stl_vector.h ****       { _M_fill_assign(__n, __val); }
 751:c:\program files\daisytoolchain\arm-none-eabi\include\c++\10.2.1\bits\stl_vector.h **** 
 752:c:\program files\daisytoolchain\arm-none-eabi\include\c++\10.2.1\bits\stl_vector.h ****       /**
 753:c:\program files\daisytoolchain\arm-none-eabi\include\c++\10.2.1\bits\stl_vector.h ****        *  @brief  Assigns a range to a %vector.
 754:c:\program files\daisytoolchain\arm-none-eabi\include\c++\10.2.1\bits\stl_vector.h ****        *  @param  __first  An input iterator.
 755:c:\program files\daisytoolchain\arm-none-eabi\include\c++\10.2.1\bits\stl_vector.h ****        *  @param  __last   An input iterator.
 756:c:\program files\daisytoolchain\arm-none-eabi\include\c++\10.2.1\bits\stl_vector.h ****        *
 757:c:\program files\daisytoolchain\arm-none-eabi\include\c++\10.2.1\bits\stl_vector.h ****        *  This function fills a %vector with copies of the elements in the
 758:c:\program files\daisytoolchain\arm-none-eabi\include\c++\10.2.1\bits\stl_vector.h ****        *  range [__first,__last).
ARM GAS  C:\Users\fv-19\AppData\Local\Temp\ccD6R0Rc.s 			page 24


 759:c:\program files\daisytoolchain\arm-none-eabi\include\c++\10.2.1\bits\stl_vector.h ****        *
 760:c:\program files\daisytoolchain\arm-none-eabi\include\c++\10.2.1\bits\stl_vector.h ****        *  Note that the assignment completely changes the %vector and
 761:c:\program files\daisytoolchain\arm-none-eabi\include\c++\10.2.1\bits\stl_vector.h ****        *  that the resulting %vector's size is the same as the number
 762:c:\program files\daisytoolchain\arm-none-eabi\include\c++\10.2.1\bits\stl_vector.h ****        *  of elements assigned.
 763:c:\program files\daisytoolchain\arm-none-eabi\include\c++\10.2.1\bits\stl_vector.h ****        */
 764:c:\program files\daisytoolchain\arm-none-eabi\include\c++\10.2.1\bits\stl_vector.h **** #if __cplusplus >= 201103L
 765:c:\program files\daisytoolchain\arm-none-eabi\include\c++\10.2.1\bits\stl_vector.h ****       template<typename _InputIterator,
 766:c:\program files\daisytoolchain\arm-none-eabi\include\c++\10.2.1\bits\stl_vector.h **** 	       typename = std::_RequireInputIter<_InputIterator>>
 767:c:\program files\daisytoolchain\arm-none-eabi\include\c++\10.2.1\bits\stl_vector.h **** 	void
 768:c:\program files\daisytoolchain\arm-none-eabi\include\c++\10.2.1\bits\stl_vector.h **** 	assign(_InputIterator __first, _InputIterator __last)
 769:c:\program files\daisytoolchain\arm-none-eabi\include\c++\10.2.1\bits\stl_vector.h **** 	{ _M_assign_dispatch(__first, __last, __false_type()); }
 770:c:\program files\daisytoolchain\arm-none-eabi\include\c++\10.2.1\bits\stl_vector.h **** #else
 771:c:\program files\daisytoolchain\arm-none-eabi\include\c++\10.2.1\bits\stl_vector.h ****       template<typename _InputIterator>
 772:c:\program files\daisytoolchain\arm-none-eabi\include\c++\10.2.1\bits\stl_vector.h **** 	void
 773:c:\program files\daisytoolchain\arm-none-eabi\include\c++\10.2.1\bits\stl_vector.h **** 	assign(_InputIterator __first, _InputIterator __last)
 774:c:\program files\daisytoolchain\arm-none-eabi\include\c++\10.2.1\bits\stl_vector.h **** 	{
 775:c:\program files\daisytoolchain\arm-none-eabi\include\c++\10.2.1\bits\stl_vector.h **** 	  // Check whether it's an integral type.  If so, it's not an iterator.
 776:c:\program files\daisytoolchain\arm-none-eabi\include\c++\10.2.1\bits\stl_vector.h **** 	  typedef typename std::__is_integer<_InputIterator>::__type _Integral;
 777:c:\program files\daisytoolchain\arm-none-eabi\include\c++\10.2.1\bits\stl_vector.h **** 	  _M_assign_dispatch(__first, __last, _Integral());
 778:c:\program files\daisytoolchain\arm-none-eabi\include\c++\10.2.1\bits\stl_vector.h **** 	}
 779:c:\program files\daisytoolchain\arm-none-eabi\include\c++\10.2.1\bits\stl_vector.h **** #endif
 780:c:\program files\daisytoolchain\arm-none-eabi\include\c++\10.2.1\bits\stl_vector.h **** 
 781:c:\program files\daisytoolchain\arm-none-eabi\include\c++\10.2.1\bits\stl_vector.h **** #if __cplusplus >= 201103L
 782:c:\program files\daisytoolchain\arm-none-eabi\include\c++\10.2.1\bits\stl_vector.h ****       /**
 783:c:\program files\daisytoolchain\arm-none-eabi\include\c++\10.2.1\bits\stl_vector.h ****        *  @brief  Assigns an initializer list to a %vector.
 784:c:\program files\daisytoolchain\arm-none-eabi\include\c++\10.2.1\bits\stl_vector.h ****        *  @param  __l  An initializer_list.
 785:c:\program files\daisytoolchain\arm-none-eabi\include\c++\10.2.1\bits\stl_vector.h ****        *
 786:c:\program files\daisytoolchain\arm-none-eabi\include\c++\10.2.1\bits\stl_vector.h ****        *  This function fills a %vector with copies of the elements in the
 787:c:\program files\daisytoolchain\arm-none-eabi\include\c++\10.2.1\bits\stl_vector.h ****        *  initializer list @a __l.
 788:c:\program files\daisytoolchain\arm-none-eabi\include\c++\10.2.1\bits\stl_vector.h ****        *
 789:c:\program files\daisytoolchain\arm-none-eabi\include\c++\10.2.1\bits\stl_vector.h ****        *  Note that the assignment completely changes the %vector and
 790:c:\program files\daisytoolchain\arm-none-eabi\include\c++\10.2.1\bits\stl_vector.h ****        *  that the resulting %vector's size is the same as the number
 791:c:\program files\daisytoolchain\arm-none-eabi\include\c++\10.2.1\bits\stl_vector.h ****        *  of elements assigned.
 792:c:\program files\daisytoolchain\arm-none-eabi\include\c++\10.2.1\bits\stl_vector.h ****        */
 793:c:\program files\daisytoolchain\arm-none-eabi\include\c++\10.2.1\bits\stl_vector.h ****       void
 794:c:\program files\daisytoolchain\arm-none-eabi\include\c++\10.2.1\bits\stl_vector.h ****       assign(initializer_list<value_type> __l)
 795:c:\program files\daisytoolchain\arm-none-eabi\include\c++\10.2.1\bits\stl_vector.h ****       {
 796:c:\program files\daisytoolchain\arm-none-eabi\include\c++\10.2.1\bits\stl_vector.h **** 	this->_M_assign_aux(__l.begin(), __l.end(),
 797:c:\program files\daisytoolchain\arm-none-eabi\include\c++\10.2.1\bits\stl_vector.h **** 			    random_access_iterator_tag());
 798:c:\program files\daisytoolchain\arm-none-eabi\include\c++\10.2.1\bits\stl_vector.h ****       }
 799:c:\program files\daisytoolchain\arm-none-eabi\include\c++\10.2.1\bits\stl_vector.h **** #endif
 800:c:\program files\daisytoolchain\arm-none-eabi\include\c++\10.2.1\bits\stl_vector.h **** 
 801:c:\program files\daisytoolchain\arm-none-eabi\include\c++\10.2.1\bits\stl_vector.h ****       /// Get a copy of the memory allocation object.
 802:c:\program files\daisytoolchain\arm-none-eabi\include\c++\10.2.1\bits\stl_vector.h ****       using _Base::get_allocator;
 803:c:\program files\daisytoolchain\arm-none-eabi\include\c++\10.2.1\bits\stl_vector.h **** 
 804:c:\program files\daisytoolchain\arm-none-eabi\include\c++\10.2.1\bits\stl_vector.h ****       // iterators
 805:c:\program files\daisytoolchain\arm-none-eabi\include\c++\10.2.1\bits\stl_vector.h ****       /**
 806:c:\program files\daisytoolchain\arm-none-eabi\include\c++\10.2.1\bits\stl_vector.h ****        *  Returns a read/write iterator that points to the first
 807:c:\program files\daisytoolchain\arm-none-eabi\include\c++\10.2.1\bits\stl_vector.h ****        *  element in the %vector.  Iteration is done in ordinary
 808:c:\program files\daisytoolchain\arm-none-eabi\include\c++\10.2.1\bits\stl_vector.h ****        *  element order.
 809:c:\program files\daisytoolchain\arm-none-eabi\include\c++\10.2.1\bits\stl_vector.h ****        */
 810:c:\program files\daisytoolchain\arm-none-eabi\include\c++\10.2.1\bits\stl_vector.h ****       iterator
 811:c:\program files\daisytoolchain\arm-none-eabi\include\c++\10.2.1\bits\stl_vector.h ****       begin() _GLIBCXX_NOEXCEPT
 812:c:\program files\daisytoolchain\arm-none-eabi\include\c++\10.2.1\bits\stl_vector.h ****       { return iterator(this->_M_impl._M_start); }
 813:c:\program files\daisytoolchain\arm-none-eabi\include\c++\10.2.1\bits\stl_vector.h **** 
 814:c:\program files\daisytoolchain\arm-none-eabi\include\c++\10.2.1\bits\stl_vector.h ****       /**
 815:c:\program files\daisytoolchain\arm-none-eabi\include\c++\10.2.1\bits\stl_vector.h ****        *  Returns a read-only (constant) iterator that points to the
ARM GAS  C:\Users\fv-19\AppData\Local\Temp\ccD6R0Rc.s 			page 25


 816:c:\program files\daisytoolchain\arm-none-eabi\include\c++\10.2.1\bits\stl_vector.h ****        *  first element in the %vector.  Iteration is done in ordinary
 817:c:\program files\daisytoolchain\arm-none-eabi\include\c++\10.2.1\bits\stl_vector.h ****        *  element order.
 818:c:\program files\daisytoolchain\arm-none-eabi\include\c++\10.2.1\bits\stl_vector.h ****        */
 819:c:\program files\daisytoolchain\arm-none-eabi\include\c++\10.2.1\bits\stl_vector.h ****       const_iterator
 820:c:\program files\daisytoolchain\arm-none-eabi\include\c++\10.2.1\bits\stl_vector.h ****       begin() const _GLIBCXX_NOEXCEPT
 821:c:\program files\daisytoolchain\arm-none-eabi\include\c++\10.2.1\bits\stl_vector.h ****       { return const_iterator(this->_M_impl._M_start); }
 822:c:\program files\daisytoolchain\arm-none-eabi\include\c++\10.2.1\bits\stl_vector.h **** 
 823:c:\program files\daisytoolchain\arm-none-eabi\include\c++\10.2.1\bits\stl_vector.h ****       /**
 824:c:\program files\daisytoolchain\arm-none-eabi\include\c++\10.2.1\bits\stl_vector.h ****        *  Returns a read/write iterator that points one past the last
 825:c:\program files\daisytoolchain\arm-none-eabi\include\c++\10.2.1\bits\stl_vector.h ****        *  element in the %vector.  Iteration is done in ordinary
 826:c:\program files\daisytoolchain\arm-none-eabi\include\c++\10.2.1\bits\stl_vector.h ****        *  element order.
 827:c:\program files\daisytoolchain\arm-none-eabi\include\c++\10.2.1\bits\stl_vector.h ****        */
 828:c:\program files\daisytoolchain\arm-none-eabi\include\c++\10.2.1\bits\stl_vector.h ****       iterator
 829:c:\program files\daisytoolchain\arm-none-eabi\include\c++\10.2.1\bits\stl_vector.h ****       end() _GLIBCXX_NOEXCEPT
 830:c:\program files\daisytoolchain\arm-none-eabi\include\c++\10.2.1\bits\stl_vector.h ****       { return iterator(this->_M_impl._M_finish); }
 831:c:\program files\daisytoolchain\arm-none-eabi\include\c++\10.2.1\bits\stl_vector.h **** 
 832:c:\program files\daisytoolchain\arm-none-eabi\include\c++\10.2.1\bits\stl_vector.h ****       /**
 833:c:\program files\daisytoolchain\arm-none-eabi\include\c++\10.2.1\bits\stl_vector.h ****        *  Returns a read-only (constant) iterator that points one past
 834:c:\program files\daisytoolchain\arm-none-eabi\include\c++\10.2.1\bits\stl_vector.h ****        *  the last element in the %vector.  Iteration is done in
 835:c:\program files\daisytoolchain\arm-none-eabi\include\c++\10.2.1\bits\stl_vector.h ****        *  ordinary element order.
 836:c:\program files\daisytoolchain\arm-none-eabi\include\c++\10.2.1\bits\stl_vector.h ****        */
 837:c:\program files\daisytoolchain\arm-none-eabi\include\c++\10.2.1\bits\stl_vector.h ****       const_iterator
 838:c:\program files\daisytoolchain\arm-none-eabi\include\c++\10.2.1\bits\stl_vector.h ****       end() const _GLIBCXX_NOEXCEPT
 839:c:\program files\daisytoolchain\arm-none-eabi\include\c++\10.2.1\bits\stl_vector.h ****       { return const_iterator(this->_M_impl._M_finish); }
 840:c:\program files\daisytoolchain\arm-none-eabi\include\c++\10.2.1\bits\stl_vector.h **** 
 841:c:\program files\daisytoolchain\arm-none-eabi\include\c++\10.2.1\bits\stl_vector.h ****       /**
 842:c:\program files\daisytoolchain\arm-none-eabi\include\c++\10.2.1\bits\stl_vector.h ****        *  Returns a read/write reverse iterator that points to the
 843:c:\program files\daisytoolchain\arm-none-eabi\include\c++\10.2.1\bits\stl_vector.h ****        *  last element in the %vector.  Iteration is done in reverse
 844:c:\program files\daisytoolchain\arm-none-eabi\include\c++\10.2.1\bits\stl_vector.h ****        *  element order.
 845:c:\program files\daisytoolchain\arm-none-eabi\include\c++\10.2.1\bits\stl_vector.h ****        */
 846:c:\program files\daisytoolchain\arm-none-eabi\include\c++\10.2.1\bits\stl_vector.h ****       reverse_iterator
 847:c:\program files\daisytoolchain\arm-none-eabi\include\c++\10.2.1\bits\stl_vector.h ****       rbegin() _GLIBCXX_NOEXCEPT
 848:c:\program files\daisytoolchain\arm-none-eabi\include\c++\10.2.1\bits\stl_vector.h ****       { return reverse_iterator(end()); }
 849:c:\program files\daisytoolchain\arm-none-eabi\include\c++\10.2.1\bits\stl_vector.h **** 
 850:c:\program files\daisytoolchain\arm-none-eabi\include\c++\10.2.1\bits\stl_vector.h ****       /**
 851:c:\program files\daisytoolchain\arm-none-eabi\include\c++\10.2.1\bits\stl_vector.h ****        *  Returns a read-only (constant) reverse iterator that points
 852:c:\program files\daisytoolchain\arm-none-eabi\include\c++\10.2.1\bits\stl_vector.h ****        *  to the last element in the %vector.  Iteration is done in
 853:c:\program files\daisytoolchain\arm-none-eabi\include\c++\10.2.1\bits\stl_vector.h ****        *  reverse element order.
 854:c:\program files\daisytoolchain\arm-none-eabi\include\c++\10.2.1\bits\stl_vector.h ****        */
 855:c:\program files\daisytoolchain\arm-none-eabi\include\c++\10.2.1\bits\stl_vector.h ****       const_reverse_iterator
 856:c:\program files\daisytoolchain\arm-none-eabi\include\c++\10.2.1\bits\stl_vector.h ****       rbegin() const _GLIBCXX_NOEXCEPT
 857:c:\program files\daisytoolchain\arm-none-eabi\include\c++\10.2.1\bits\stl_vector.h ****       { return const_reverse_iterator(end()); }
 858:c:\program files\daisytoolchain\arm-none-eabi\include\c++\10.2.1\bits\stl_vector.h **** 
 859:c:\program files\daisytoolchain\arm-none-eabi\include\c++\10.2.1\bits\stl_vector.h ****       /**
 860:c:\program files\daisytoolchain\arm-none-eabi\include\c++\10.2.1\bits\stl_vector.h ****        *  Returns a read/write reverse iterator that points to one
 861:c:\program files\daisytoolchain\arm-none-eabi\include\c++\10.2.1\bits\stl_vector.h ****        *  before the first element in the %vector.  Iteration is done
 862:c:\program files\daisytoolchain\arm-none-eabi\include\c++\10.2.1\bits\stl_vector.h ****        *  in reverse element order.
 863:c:\program files\daisytoolchain\arm-none-eabi\include\c++\10.2.1\bits\stl_vector.h ****        */
 864:c:\program files\daisytoolchain\arm-none-eabi\include\c++\10.2.1\bits\stl_vector.h ****       reverse_iterator
 865:c:\program files\daisytoolchain\arm-none-eabi\include\c++\10.2.1\bits\stl_vector.h ****       rend() _GLIBCXX_NOEXCEPT
 866:c:\program files\daisytoolchain\arm-none-eabi\include\c++\10.2.1\bits\stl_vector.h ****       { return reverse_iterator(begin()); }
 867:c:\program files\daisytoolchain\arm-none-eabi\include\c++\10.2.1\bits\stl_vector.h **** 
 868:c:\program files\daisytoolchain\arm-none-eabi\include\c++\10.2.1\bits\stl_vector.h ****       /**
 869:c:\program files\daisytoolchain\arm-none-eabi\include\c++\10.2.1\bits\stl_vector.h ****        *  Returns a read-only (constant) reverse iterator that points
 870:c:\program files\daisytoolchain\arm-none-eabi\include\c++\10.2.1\bits\stl_vector.h ****        *  to one before the first element in the %vector.  Iteration
 871:c:\program files\daisytoolchain\arm-none-eabi\include\c++\10.2.1\bits\stl_vector.h ****        *  is done in reverse element order.
 872:c:\program files\daisytoolchain\arm-none-eabi\include\c++\10.2.1\bits\stl_vector.h ****        */
ARM GAS  C:\Users\fv-19\AppData\Local\Temp\ccD6R0Rc.s 			page 26


 873:c:\program files\daisytoolchain\arm-none-eabi\include\c++\10.2.1\bits\stl_vector.h ****       const_reverse_iterator
 874:c:\program files\daisytoolchain\arm-none-eabi\include\c++\10.2.1\bits\stl_vector.h ****       rend() const _GLIBCXX_NOEXCEPT
 875:c:\program files\daisytoolchain\arm-none-eabi\include\c++\10.2.1\bits\stl_vector.h ****       { return const_reverse_iterator(begin()); }
 876:c:\program files\daisytoolchain\arm-none-eabi\include\c++\10.2.1\bits\stl_vector.h **** 
 877:c:\program files\daisytoolchain\arm-none-eabi\include\c++\10.2.1\bits\stl_vector.h **** #if __cplusplus >= 201103L
 878:c:\program files\daisytoolchain\arm-none-eabi\include\c++\10.2.1\bits\stl_vector.h ****       /**
 879:c:\program files\daisytoolchain\arm-none-eabi\include\c++\10.2.1\bits\stl_vector.h ****        *  Returns a read-only (constant) iterator that points to the
 880:c:\program files\daisytoolchain\arm-none-eabi\include\c++\10.2.1\bits\stl_vector.h ****        *  first element in the %vector.  Iteration is done in ordinary
 881:c:\program files\daisytoolchain\arm-none-eabi\include\c++\10.2.1\bits\stl_vector.h ****        *  element order.
 882:c:\program files\daisytoolchain\arm-none-eabi\include\c++\10.2.1\bits\stl_vector.h ****        */
 883:c:\program files\daisytoolchain\arm-none-eabi\include\c++\10.2.1\bits\stl_vector.h ****       const_iterator
 884:c:\program files\daisytoolchain\arm-none-eabi\include\c++\10.2.1\bits\stl_vector.h ****       cbegin() const noexcept
 885:c:\program files\daisytoolchain\arm-none-eabi\include\c++\10.2.1\bits\stl_vector.h ****       { return const_iterator(this->_M_impl._M_start); }
 886:c:\program files\daisytoolchain\arm-none-eabi\include\c++\10.2.1\bits\stl_vector.h **** 
 887:c:\program files\daisytoolchain\arm-none-eabi\include\c++\10.2.1\bits\stl_vector.h ****       /**
 888:c:\program files\daisytoolchain\arm-none-eabi\include\c++\10.2.1\bits\stl_vector.h ****        *  Returns a read-only (constant) iterator that points one past
 889:c:\program files\daisytoolchain\arm-none-eabi\include\c++\10.2.1\bits\stl_vector.h ****        *  the last element in the %vector.  Iteration is done in
 890:c:\program files\daisytoolchain\arm-none-eabi\include\c++\10.2.1\bits\stl_vector.h ****        *  ordinary element order.
 891:c:\program files\daisytoolchain\arm-none-eabi\include\c++\10.2.1\bits\stl_vector.h ****        */
 892:c:\program files\daisytoolchain\arm-none-eabi\include\c++\10.2.1\bits\stl_vector.h ****       const_iterator
 893:c:\program files\daisytoolchain\arm-none-eabi\include\c++\10.2.1\bits\stl_vector.h ****       cend() const noexcept
 894:c:\program files\daisytoolchain\arm-none-eabi\include\c++\10.2.1\bits\stl_vector.h ****       { return const_iterator(this->_M_impl._M_finish); }
 895:c:\program files\daisytoolchain\arm-none-eabi\include\c++\10.2.1\bits\stl_vector.h **** 
 896:c:\program files\daisytoolchain\arm-none-eabi\include\c++\10.2.1\bits\stl_vector.h ****       /**
 897:c:\program files\daisytoolchain\arm-none-eabi\include\c++\10.2.1\bits\stl_vector.h ****        *  Returns a read-only (constant) reverse iterator that points
 898:c:\program files\daisytoolchain\arm-none-eabi\include\c++\10.2.1\bits\stl_vector.h ****        *  to the last element in the %vector.  Iteration is done in
 899:c:\program files\daisytoolchain\arm-none-eabi\include\c++\10.2.1\bits\stl_vector.h ****        *  reverse element order.
 900:c:\program files\daisytoolchain\arm-none-eabi\include\c++\10.2.1\bits\stl_vector.h ****        */
 901:c:\program files\daisytoolchain\arm-none-eabi\include\c++\10.2.1\bits\stl_vector.h ****       const_reverse_iterator
 902:c:\program files\daisytoolchain\arm-none-eabi\include\c++\10.2.1\bits\stl_vector.h ****       crbegin() const noexcept
 903:c:\program files\daisytoolchain\arm-none-eabi\include\c++\10.2.1\bits\stl_vector.h ****       { return const_reverse_iterator(end()); }
 904:c:\program files\daisytoolchain\arm-none-eabi\include\c++\10.2.1\bits\stl_vector.h **** 
 905:c:\program files\daisytoolchain\arm-none-eabi\include\c++\10.2.1\bits\stl_vector.h ****       /**
 906:c:\program files\daisytoolchain\arm-none-eabi\include\c++\10.2.1\bits\stl_vector.h ****        *  Returns a read-only (constant) reverse iterator that points
 907:c:\program files\daisytoolchain\arm-none-eabi\include\c++\10.2.1\bits\stl_vector.h ****        *  to one before the first element in the %vector.  Iteration
 908:c:\program files\daisytoolchain\arm-none-eabi\include\c++\10.2.1\bits\stl_vector.h ****        *  is done in reverse element order.
 909:c:\program files\daisytoolchain\arm-none-eabi\include\c++\10.2.1\bits\stl_vector.h ****        */
 910:c:\program files\daisytoolchain\arm-none-eabi\include\c++\10.2.1\bits\stl_vector.h ****       const_reverse_iterator
 911:c:\program files\daisytoolchain\arm-none-eabi\include\c++\10.2.1\bits\stl_vector.h ****       crend() const noexcept
 912:c:\program files\daisytoolchain\arm-none-eabi\include\c++\10.2.1\bits\stl_vector.h ****       { return const_reverse_iterator(begin()); }
 913:c:\program files\daisytoolchain\arm-none-eabi\include\c++\10.2.1\bits\stl_vector.h **** #endif
 914:c:\program files\daisytoolchain\arm-none-eabi\include\c++\10.2.1\bits\stl_vector.h **** 
 915:c:\program files\daisytoolchain\arm-none-eabi\include\c++\10.2.1\bits\stl_vector.h ****       // [23.2.4.2] capacity
 916:c:\program files\daisytoolchain\arm-none-eabi\include\c++\10.2.1\bits\stl_vector.h ****       /**  Returns the number of elements in the %vector.  */
 917:c:\program files\daisytoolchain\arm-none-eabi\include\c++\10.2.1\bits\stl_vector.h ****       size_type
 918:c:\program files\daisytoolchain\arm-none-eabi\include\c++\10.2.1\bits\stl_vector.h ****       size() const _GLIBCXX_NOEXCEPT
 114              		.loc 8 918 7 view .LVU15
 115              	.LBE1497:
 116              	.LBE1496:
  41:DSP/biquad.h  ****     {
 117              		.loc 7 41 18 is_stmt 0 view .LVU16
 118 0000 70B5     		push	{r4, r5, r6, lr}
 119              		.cfi_def_cfa_offset 16
 120              		.cfi_offset 4, -16
 121              		.cfi_offset 5, -12
 122              		.cfi_offset 6, -8
 123              		.cfi_offset 14, -4
ARM GAS  C:\Users\fv-19\AppData\Local\Temp\ccD6R0Rc.s 			page 27


  41:DSP/biquad.h  ****     {
 124              		.loc 7 41 18 view .LVU17
 125 0002 0446     		mov	r4, r0
 126              	.LBB1504:
 127              	.LBB1499:
 128              	.LBB1498:
 919:c:\program files\daisytoolchain\arm-none-eabi\include\c++\10.2.1\bits\stl_vector.h ****       { return size_type(this->_M_impl._M_finish - this->_M_impl._M_start); }
 129              		.loc 8 919 66 view .LVU18
 130 0004 D0E90103 		ldrd	r0, r3, [r0, #4]
 131              	.LVL3:
 132              		.loc 8 919 50 view .LVU19
 133 0008 1D1A     		subs	r5, r3, r0
 134              	.LVL4:
 135              		.loc 8 919 50 view .LVU20
 136              	.LBE1498:
 137              	.LBE1499:
 138              		.loc 7 44 28 view .LVU21
 139 000a AA08     		lsrs	r2, r5, #2
 140 000c 28D0     		beq	.L4
 141              	.LBB1500:
 142              	.LBB1501:
 920:c:\program files\daisytoolchain\arm-none-eabi\include\c++\10.2.1\bits\stl_vector.h **** 
 921:c:\program files\daisytoolchain\arm-none-eabi\include\c++\10.2.1\bits\stl_vector.h ****       /**  Returns the size() of the largest possible %vector.  */
 922:c:\program files\daisytoolchain\arm-none-eabi\include\c++\10.2.1\bits\stl_vector.h ****       size_type
 923:c:\program files\daisytoolchain\arm-none-eabi\include\c++\10.2.1\bits\stl_vector.h ****       max_size() const _GLIBCXX_NOEXCEPT
 924:c:\program files\daisytoolchain\arm-none-eabi\include\c++\10.2.1\bits\stl_vector.h ****       { return _S_max_size(_M_get_Tp_allocator()); }
 925:c:\program files\daisytoolchain\arm-none-eabi\include\c++\10.2.1\bits\stl_vector.h **** 
 926:c:\program files\daisytoolchain\arm-none-eabi\include\c++\10.2.1\bits\stl_vector.h **** #if __cplusplus >= 201103L
 927:c:\program files\daisytoolchain\arm-none-eabi\include\c++\10.2.1\bits\stl_vector.h ****       /**
 928:c:\program files\daisytoolchain\arm-none-eabi\include\c++\10.2.1\bits\stl_vector.h ****        *  @brief  Resizes the %vector to the specified number of elements.
 929:c:\program files\daisytoolchain\arm-none-eabi\include\c++\10.2.1\bits\stl_vector.h ****        *  @param  __new_size  Number of elements the %vector should contain.
 930:c:\program files\daisytoolchain\arm-none-eabi\include\c++\10.2.1\bits\stl_vector.h ****        *
 931:c:\program files\daisytoolchain\arm-none-eabi\include\c++\10.2.1\bits\stl_vector.h ****        *  This function will %resize the %vector to the specified
 932:c:\program files\daisytoolchain\arm-none-eabi\include\c++\10.2.1\bits\stl_vector.h ****        *  number of elements.  If the number is smaller than the
 933:c:\program files\daisytoolchain\arm-none-eabi\include\c++\10.2.1\bits\stl_vector.h ****        *  %vector's current size the %vector is truncated, otherwise
 934:c:\program files\daisytoolchain\arm-none-eabi\include\c++\10.2.1\bits\stl_vector.h ****        *  default constructed elements are appended.
 935:c:\program files\daisytoolchain\arm-none-eabi\include\c++\10.2.1\bits\stl_vector.h ****        */
 936:c:\program files\daisytoolchain\arm-none-eabi\include\c++\10.2.1\bits\stl_vector.h ****       void
 937:c:\program files\daisytoolchain\arm-none-eabi\include\c++\10.2.1\bits\stl_vector.h ****       resize(size_type __new_size)
 938:c:\program files\daisytoolchain\arm-none-eabi\include\c++\10.2.1\bits\stl_vector.h ****       {
 939:c:\program files\daisytoolchain\arm-none-eabi\include\c++\10.2.1\bits\stl_vector.h **** 	if (__new_size > size())
 940:c:\program files\daisytoolchain\arm-none-eabi\include\c++\10.2.1\bits\stl_vector.h **** 	  _M_default_append(__new_size - size());
 941:c:\program files\daisytoolchain\arm-none-eabi\include\c++\10.2.1\bits\stl_vector.h **** 	else if (__new_size < size())
 942:c:\program files\daisytoolchain\arm-none-eabi\include\c++\10.2.1\bits\stl_vector.h **** 	  _M_erase_at_end(this->_M_impl._M_start + __new_size);
 943:c:\program files\daisytoolchain\arm-none-eabi\include\c++\10.2.1\bits\stl_vector.h ****       }
 944:c:\program files\daisytoolchain\arm-none-eabi\include\c++\10.2.1\bits\stl_vector.h **** 
 945:c:\program files\daisytoolchain\arm-none-eabi\include\c++\10.2.1\bits\stl_vector.h ****       /**
 946:c:\program files\daisytoolchain\arm-none-eabi\include\c++\10.2.1\bits\stl_vector.h ****        *  @brief  Resizes the %vector to the specified number of elements.
 947:c:\program files\daisytoolchain\arm-none-eabi\include\c++\10.2.1\bits\stl_vector.h ****        *  @param  __new_size  Number of elements the %vector should contain.
 948:c:\program files\daisytoolchain\arm-none-eabi\include\c++\10.2.1\bits\stl_vector.h ****        *  @param  __x  Data with which new elements should be populated.
 949:c:\program files\daisytoolchain\arm-none-eabi\include\c++\10.2.1\bits\stl_vector.h ****        *
 950:c:\program files\daisytoolchain\arm-none-eabi\include\c++\10.2.1\bits\stl_vector.h ****        *  This function will %resize the %vector to the specified
 951:c:\program files\daisytoolchain\arm-none-eabi\include\c++\10.2.1\bits\stl_vector.h ****        *  number of elements.  If the number is smaller than the
 952:c:\program files\daisytoolchain\arm-none-eabi\include\c++\10.2.1\bits\stl_vector.h ****        *  %vector's current size the %vector is truncated, otherwise
 953:c:\program files\daisytoolchain\arm-none-eabi\include\c++\10.2.1\bits\stl_vector.h ****        *  the %vector is extended and new elements are populated with
 954:c:\program files\daisytoolchain\arm-none-eabi\include\c++\10.2.1\bits\stl_vector.h ****        *  given data.
 955:c:\program files\daisytoolchain\arm-none-eabi\include\c++\10.2.1\bits\stl_vector.h ****        */
ARM GAS  C:\Users\fv-19\AppData\Local\Temp\ccD6R0Rc.s 			page 28


 956:c:\program files\daisytoolchain\arm-none-eabi\include\c++\10.2.1\bits\stl_vector.h ****       void
 957:c:\program files\daisytoolchain\arm-none-eabi\include\c++\10.2.1\bits\stl_vector.h ****       resize(size_type __new_size, const value_type& __x)
 958:c:\program files\daisytoolchain\arm-none-eabi\include\c++\10.2.1\bits\stl_vector.h ****       {
 959:c:\program files\daisytoolchain\arm-none-eabi\include\c++\10.2.1\bits\stl_vector.h **** 	if (__new_size > size())
 960:c:\program files\daisytoolchain\arm-none-eabi\include\c++\10.2.1\bits\stl_vector.h **** 	  _M_fill_insert(end(), __new_size - size(), __x);
 961:c:\program files\daisytoolchain\arm-none-eabi\include\c++\10.2.1\bits\stl_vector.h **** 	else if (__new_size < size())
 962:c:\program files\daisytoolchain\arm-none-eabi\include\c++\10.2.1\bits\stl_vector.h **** 	  _M_erase_at_end(this->_M_impl._M_start + __new_size);
 963:c:\program files\daisytoolchain\arm-none-eabi\include\c++\10.2.1\bits\stl_vector.h ****       }
 964:c:\program files\daisytoolchain\arm-none-eabi\include\c++\10.2.1\bits\stl_vector.h **** #else
 965:c:\program files\daisytoolchain\arm-none-eabi\include\c++\10.2.1\bits\stl_vector.h ****       /**
 966:c:\program files\daisytoolchain\arm-none-eabi\include\c++\10.2.1\bits\stl_vector.h ****        *  @brief  Resizes the %vector to the specified number of elements.
 967:c:\program files\daisytoolchain\arm-none-eabi\include\c++\10.2.1\bits\stl_vector.h ****        *  @param  __new_size  Number of elements the %vector should contain.
 968:c:\program files\daisytoolchain\arm-none-eabi\include\c++\10.2.1\bits\stl_vector.h ****        *  @param  __x  Data with which new elements should be populated.
 969:c:\program files\daisytoolchain\arm-none-eabi\include\c++\10.2.1\bits\stl_vector.h ****        *
 970:c:\program files\daisytoolchain\arm-none-eabi\include\c++\10.2.1\bits\stl_vector.h ****        *  This function will %resize the %vector to the specified
 971:c:\program files\daisytoolchain\arm-none-eabi\include\c++\10.2.1\bits\stl_vector.h ****        *  number of elements.  If the number is smaller than the
 972:c:\program files\daisytoolchain\arm-none-eabi\include\c++\10.2.1\bits\stl_vector.h ****        *  %vector's current size the %vector is truncated, otherwise
 973:c:\program files\daisytoolchain\arm-none-eabi\include\c++\10.2.1\bits\stl_vector.h ****        *  the %vector is extended and new elements are populated with
 974:c:\program files\daisytoolchain\arm-none-eabi\include\c++\10.2.1\bits\stl_vector.h ****        *  given data.
 975:c:\program files\daisytoolchain\arm-none-eabi\include\c++\10.2.1\bits\stl_vector.h ****        */
 976:c:\program files\daisytoolchain\arm-none-eabi\include\c++\10.2.1\bits\stl_vector.h ****       void
 977:c:\program files\daisytoolchain\arm-none-eabi\include\c++\10.2.1\bits\stl_vector.h ****       resize(size_type __new_size, value_type __x = value_type())
 978:c:\program files\daisytoolchain\arm-none-eabi\include\c++\10.2.1\bits\stl_vector.h ****       {
 979:c:\program files\daisytoolchain\arm-none-eabi\include\c++\10.2.1\bits\stl_vector.h **** 	if (__new_size > size())
 980:c:\program files\daisytoolchain\arm-none-eabi\include\c++\10.2.1\bits\stl_vector.h **** 	  _M_fill_insert(end(), __new_size - size(), __x);
 981:c:\program files\daisytoolchain\arm-none-eabi\include\c++\10.2.1\bits\stl_vector.h **** 	else if (__new_size < size())
 982:c:\program files\daisytoolchain\arm-none-eabi\include\c++\10.2.1\bits\stl_vector.h **** 	  _M_erase_at_end(this->_M_impl._M_start + __new_size);
 983:c:\program files\daisytoolchain\arm-none-eabi\include\c++\10.2.1\bits\stl_vector.h ****       }
 984:c:\program files\daisytoolchain\arm-none-eabi\include\c++\10.2.1\bits\stl_vector.h **** #endif
 985:c:\program files\daisytoolchain\arm-none-eabi\include\c++\10.2.1\bits\stl_vector.h **** 
 986:c:\program files\daisytoolchain\arm-none-eabi\include\c++\10.2.1\bits\stl_vector.h **** #if __cplusplus >= 201103L
 987:c:\program files\daisytoolchain\arm-none-eabi\include\c++\10.2.1\bits\stl_vector.h ****       /**  A non-binding request to reduce capacity() to size().  */
 988:c:\program files\daisytoolchain\arm-none-eabi\include\c++\10.2.1\bits\stl_vector.h ****       void
 989:c:\program files\daisytoolchain\arm-none-eabi\include\c++\10.2.1\bits\stl_vector.h ****       shrink_to_fit()
 990:c:\program files\daisytoolchain\arm-none-eabi\include\c++\10.2.1\bits\stl_vector.h ****       { _M_shrink_to_fit(); }
 991:c:\program files\daisytoolchain\arm-none-eabi\include\c++\10.2.1\bits\stl_vector.h **** #endif
 992:c:\program files\daisytoolchain\arm-none-eabi\include\c++\10.2.1\bits\stl_vector.h **** 
 993:c:\program files\daisytoolchain\arm-none-eabi\include\c++\10.2.1\bits\stl_vector.h ****       /**
 994:c:\program files\daisytoolchain\arm-none-eabi\include\c++\10.2.1\bits\stl_vector.h ****        *  Returns the total number of elements that the %vector can
 995:c:\program files\daisytoolchain\arm-none-eabi\include\c++\10.2.1\bits\stl_vector.h ****        *  hold before needing to allocate more memory.
 996:c:\program files\daisytoolchain\arm-none-eabi\include\c++\10.2.1\bits\stl_vector.h ****        */
 997:c:\program files\daisytoolchain\arm-none-eabi\include\c++\10.2.1\bits\stl_vector.h ****       size_type
 998:c:\program files\daisytoolchain\arm-none-eabi\include\c++\10.2.1\bits\stl_vector.h ****       capacity() const _GLIBCXX_NOEXCEPT
 999:c:\program files\daisytoolchain\arm-none-eabi\include\c++\10.2.1\bits\stl_vector.h ****       { return size_type(this->_M_impl._M_end_of_storage
1000:c:\program files\daisytoolchain\arm-none-eabi\include\c++\10.2.1\bits\stl_vector.h **** 			 - this->_M_impl._M_start); }
1001:c:\program files\daisytoolchain\arm-none-eabi\include\c++\10.2.1\bits\stl_vector.h **** 
1002:c:\program files\daisytoolchain\arm-none-eabi\include\c++\10.2.1\bits\stl_vector.h ****       /**
1003:c:\program files\daisytoolchain\arm-none-eabi\include\c++\10.2.1\bits\stl_vector.h ****        *  Returns true if the %vector is empty.  (Thus begin() would
1004:c:\program files\daisytoolchain\arm-none-eabi\include\c++\10.2.1\bits\stl_vector.h ****        *  equal end().)
1005:c:\program files\daisytoolchain\arm-none-eabi\include\c++\10.2.1\bits\stl_vector.h ****        */
1006:c:\program files\daisytoolchain\arm-none-eabi\include\c++\10.2.1\bits\stl_vector.h ****       _GLIBCXX_NODISCARD bool
1007:c:\program files\daisytoolchain\arm-none-eabi\include\c++\10.2.1\bits\stl_vector.h ****       empty() const _GLIBCXX_NOEXCEPT
1008:c:\program files\daisytoolchain\arm-none-eabi\include\c++\10.2.1\bits\stl_vector.h ****       { return begin() == end(); }
1009:c:\program files\daisytoolchain\arm-none-eabi\include\c++\10.2.1\bits\stl_vector.h **** 
1010:c:\program files\daisytoolchain\arm-none-eabi\include\c++\10.2.1\bits\stl_vector.h ****       /**
1011:c:\program files\daisytoolchain\arm-none-eabi\include\c++\10.2.1\bits\stl_vector.h ****        *  @brief  Attempt to preallocate enough memory for specified number of
1012:c:\program files\daisytoolchain\arm-none-eabi\include\c++\10.2.1\bits\stl_vector.h ****        *          elements.
ARM GAS  C:\Users\fv-19\AppData\Local\Temp\ccD6R0Rc.s 			page 29


1013:c:\program files\daisytoolchain\arm-none-eabi\include\c++\10.2.1\bits\stl_vector.h ****        *  @param  __n  Number of elements required.
1014:c:\program files\daisytoolchain\arm-none-eabi\include\c++\10.2.1\bits\stl_vector.h ****        *  @throw  std::length_error  If @a n exceeds @c max_size().
1015:c:\program files\daisytoolchain\arm-none-eabi\include\c++\10.2.1\bits\stl_vector.h ****        *
1016:c:\program files\daisytoolchain\arm-none-eabi\include\c++\10.2.1\bits\stl_vector.h ****        *  This function attempts to reserve enough memory for the
1017:c:\program files\daisytoolchain\arm-none-eabi\include\c++\10.2.1\bits\stl_vector.h ****        *  %vector to hold the specified number of elements.  If the
1018:c:\program files\daisytoolchain\arm-none-eabi\include\c++\10.2.1\bits\stl_vector.h ****        *  number requested is more than max_size(), length_error is
1019:c:\program files\daisytoolchain\arm-none-eabi\include\c++\10.2.1\bits\stl_vector.h ****        *  thrown.
1020:c:\program files\daisytoolchain\arm-none-eabi\include\c++\10.2.1\bits\stl_vector.h ****        *
1021:c:\program files\daisytoolchain\arm-none-eabi\include\c++\10.2.1\bits\stl_vector.h ****        *  The advantage of this function is that if optimal code is a
1022:c:\program files\daisytoolchain\arm-none-eabi\include\c++\10.2.1\bits\stl_vector.h ****        *  necessity and the user can determine the number of elements
1023:c:\program files\daisytoolchain\arm-none-eabi\include\c++\10.2.1\bits\stl_vector.h ****        *  that will be required, the user can reserve the memory in
1024:c:\program files\daisytoolchain\arm-none-eabi\include\c++\10.2.1\bits\stl_vector.h ****        *  %advance, and thus prevent a possible reallocation of memory
1025:c:\program files\daisytoolchain\arm-none-eabi\include\c++\10.2.1\bits\stl_vector.h ****        *  and copying of %vector data.
1026:c:\program files\daisytoolchain\arm-none-eabi\include\c++\10.2.1\bits\stl_vector.h ****        */
1027:c:\program files\daisytoolchain\arm-none-eabi\include\c++\10.2.1\bits\stl_vector.h ****       void
1028:c:\program files\daisytoolchain\arm-none-eabi\include\c++\10.2.1\bits\stl_vector.h ****       reserve(size_type __n);
1029:c:\program files\daisytoolchain\arm-none-eabi\include\c++\10.2.1\bits\stl_vector.h **** 
1030:c:\program files\daisytoolchain\arm-none-eabi\include\c++\10.2.1\bits\stl_vector.h ****       // element access
1031:c:\program files\daisytoolchain\arm-none-eabi\include\c++\10.2.1\bits\stl_vector.h ****       /**
1032:c:\program files\daisytoolchain\arm-none-eabi\include\c++\10.2.1\bits\stl_vector.h ****        *  @brief  Subscript access to the data contained in the %vector.
1033:c:\program files\daisytoolchain\arm-none-eabi\include\c++\10.2.1\bits\stl_vector.h ****        *  @param __n The index of the element for which data should be
1034:c:\program files\daisytoolchain\arm-none-eabi\include\c++\10.2.1\bits\stl_vector.h ****        *  accessed.
1035:c:\program files\daisytoolchain\arm-none-eabi\include\c++\10.2.1\bits\stl_vector.h ****        *  @return  Read/write reference to data.
1036:c:\program files\daisytoolchain\arm-none-eabi\include\c++\10.2.1\bits\stl_vector.h ****        *
1037:c:\program files\daisytoolchain\arm-none-eabi\include\c++\10.2.1\bits\stl_vector.h ****        *  This operator allows for easy, array-style, data access.
1038:c:\program files\daisytoolchain\arm-none-eabi\include\c++\10.2.1\bits\stl_vector.h ****        *  Note that data access with this operator is unchecked and
1039:c:\program files\daisytoolchain\arm-none-eabi\include\c++\10.2.1\bits\stl_vector.h ****        *  out_of_range lookups are not defined. (For checked lookups
1040:c:\program files\daisytoolchain\arm-none-eabi\include\c++\10.2.1\bits\stl_vector.h ****        *  see at().)
1041:c:\program files\daisytoolchain\arm-none-eabi\include\c++\10.2.1\bits\stl_vector.h ****        */
1042:c:\program files\daisytoolchain\arm-none-eabi\include\c++\10.2.1\bits\stl_vector.h ****       reference
1043:c:\program files\daisytoolchain\arm-none-eabi\include\c++\10.2.1\bits\stl_vector.h ****       operator[](size_type __n) _GLIBCXX_NOEXCEPT
1044:c:\program files\daisytoolchain\arm-none-eabi\include\c++\10.2.1\bits\stl_vector.h ****       {
1045:c:\program files\daisytoolchain\arm-none-eabi\include\c++\10.2.1\bits\stl_vector.h **** 	__glibcxx_requires_subscript(__n);
1046:c:\program files\daisytoolchain\arm-none-eabi\include\c++\10.2.1\bits\stl_vector.h **** 	return *(this->_M_impl._M_start + __n);
 143              		.loc 8 1046 25 view .LVU22
 144 000e 2669     		ldr	r6, [r4, #16]
 145 0010 7219     		adds	r2, r6, r5
 146 0012 9042     		cmp	r0, r2
 147 0014 01D2     		bcs	.L13
 148 0016 9E42     		cmp	r6, r3
 149 0018 23D3     		bcc	.L6
 150              	.L13:
 151              	.LBE1501:
 152              	.LBE1500:
  45:DSP/biquad.h  ****         {
  46:DSP/biquad.h  ****             aCoeffVector[i] = 0.0f;
 153              		.loc 7 46 29 view .LVU23
 154 001a 2A46     		mov	r2, r5
 155 001c 0021     		movs	r1, #0
 156 001e FFF7FEFF 		bl	memset
 157              	.LVL5:
  47:DSP/biquad.h  ****             bCoeffVector[i] = 0.0f;
 158              		.loc 7 47 29 view .LVU24
 159 0022 2A46     		mov	r2, r5
 160 0024 0021     		movs	r1, #0
 161 0026 3046     		mov	r0, r6
 162 0028 FFF7FEFF 		bl	memset
ARM GAS  C:\Users\fv-19\AppData\Local\Temp\ccD6R0Rc.s 			page 30


 163              	.LVL6:
 164              	.L8:
 165              		.loc 7 47 29 view .LVU25
 166              	.LBE1504:
 167              	.LBB1505:
 168              	.LBB1506:
 169              	.LBB1507:
 170              		.loc 8 1046 25 view .LVU26
 171 002c E069     		ldr	r0, [r4, #28]
 172              	.LBE1507:
 173              	.LBE1506:
 174              	.LBB1508:
 175              	.LBB1509:
 176 002e A46A     		ldr	r4, [r4, #40]
 177              	.LVL7:
 178              		.loc 8 1046 25 view .LVU27
 179 0030 4319     		adds	r3, r0, r5
 180 0032 9C42     		cmp	r4, r3
 181 0034 02D2     		bcs	.L14
 182 0036 6219     		adds	r2, r4, r5
 183 0038 9042     		cmp	r0, r2
 184 003a 0AD3     		bcc	.L12
 185              	.L14:
 186              	.LBE1509:
 187              	.LBE1508:
  48:DSP/biquad.h  ****         }
  49:DSP/biquad.h  **** 
  50:DSP/biquad.h  ****         for (auto i = 0; i < aCoeffVector.size(); ++i)
  51:DSP/biquad.h  ****         {
  52:DSP/biquad.h  ****             xStateVector[i] = 0.0f;
 188              		.loc 7 52 29 view .LVU28
 189 003c 2A46     		mov	r2, r5
 190 003e 0021     		movs	r1, #0
 191 0040 FFF7FEFF 		bl	memset
 192              	.LVL8:
  53:DSP/biquad.h  ****             yStateVector[i] = 0.0f;
 193              		.loc 7 53 29 view .LVU29
 194 0044 2A46     		mov	r2, r5
 195 0046 2046     		mov	r0, r4
 196 0048 0021     		movs	r1, #0
 197              	.LBE1505:
  54:DSP/biquad.h  ****         }
  55:DSP/biquad.h  ****     }
 198              		.loc 7 55 5 view .LVU30
 199 004a BDE87040 		pop	{r4, r5, r6, lr}
 200              		.cfi_remember_state
 201              		.cfi_restore 14
 202              		.cfi_restore 6
 203              		.cfi_restore 5
 204              		.cfi_restore 4
 205              		.cfi_def_cfa_offset 0
 206              	.LBB1512:
  53:DSP/biquad.h  ****             yStateVector[i] = 0.0f;
 207              		.loc 7 53 29 view .LVU31
 208 004e FFF7FEBF 		b	memset
 209              	.LVL9:
 210              	.L12:
ARM GAS  C:\Users\fv-19\AppData\Local\Temp\ccD6R0Rc.s 			page 31


 211              		.cfi_restore_state
  52:DSP/biquad.h  ****             yStateVector[i] = 0.0f;
 212              		.loc 7 52 13 is_stmt 1 view .LVU32
 213              	.LBB1510:
 214              	.LBI1506:
1043:c:\program files\daisytoolchain\arm-none-eabi\include\c++\10.2.1\bits\stl_vector.h ****       {
 215              		.loc 8 1043 7 view .LVU33
1043:c:\program files\daisytoolchain\arm-none-eabi\include\c++\10.2.1\bits\stl_vector.h ****       {
 216              		.loc 8 1043 7 is_stmt 0 view .LVU34
 217              	.LBE1510:
  52:DSP/biquad.h  ****             yStateVector[i] = 0.0f;
 218              		.loc 7 52 29 view .LVU35
 219 0052 0022     		movs	r2, #0
 220 0054 40F8042B 		str	r2, [r0], #4	@ float
  53:DSP/biquad.h  ****         }
 221              		.loc 7 53 13 is_stmt 1 view .LVU36
 222              	.LVL10:
 223              	.LBB1511:
 224              	.LBI1508:
1043:c:\program files\daisytoolchain\arm-none-eabi\include\c++\10.2.1\bits\stl_vector.h ****       {
 225              		.loc 8 1043 7 view .LVU37
1043:c:\program files\daisytoolchain\arm-none-eabi\include\c++\10.2.1\bits\stl_vector.h ****       {
 226              		.loc 8 1043 7 is_stmt 0 view .LVU38
 227              	.LBE1511:
  50:DSP/biquad.h  ****         {
 228              		.loc 7 50 28 view .LVU39
 229 0058 8342     		cmp	r3, r0
  53:DSP/biquad.h  ****         }
 230              		.loc 7 53 29 view .LVU40
 231 005a 44F8042B 		str	r2, [r4], #4	@ float
  50:DSP/biquad.h  ****         {
 232              		.loc 7 50 9 is_stmt 1 view .LVU41
  50:DSP/biquad.h  ****         {
 233              		.loc 7 50 28 view .LVU42
 234 005e F8D1     		bne	.L12
 235              	.L4:
  50:DSP/biquad.h  ****         {
 236              		.loc 7 50 28 is_stmt 0 view .LVU43
 237              	.LBE1512:
 238              		.loc 7 55 5 view .LVU44
 239 0060 70BD     		pop	{r4, r5, r6, pc}
 240              	.LVL11:
 241              	.L6:
 242              		.loc 7 55 5 view .LVU45
 243 0062 4219     		adds	r2, r0, r5
 244              	.LVL12:
 245              	.L9:
 246              	.LBB1513:
  46:DSP/biquad.h  ****             bCoeffVector[i] = 0.0f;
 247              		.loc 7 46 13 is_stmt 1 view .LVU46
  46:DSP/biquad.h  ****             bCoeffVector[i] = 0.0f;
 248              		.loc 7 46 29 is_stmt 0 view .LVU47
 249 0064 0023     		movs	r3, #0
 250 0066 40F8043B 		str	r3, [r0], #4	@ float
  47:DSP/biquad.h  ****         }
 251              		.loc 7 47 13 is_stmt 1 view .LVU48
 252              	.LVL13:
ARM GAS  C:\Users\fv-19\AppData\Local\Temp\ccD6R0Rc.s 			page 32


 253              	.LBB1502:
 254              	.LBI1500:
1043:c:\program files\daisytoolchain\arm-none-eabi\include\c++\10.2.1\bits\stl_vector.h ****       {
 255              		.loc 8 1043 7 view .LVU49
1043:c:\program files\daisytoolchain\arm-none-eabi\include\c++\10.2.1\bits\stl_vector.h ****       {
 256              		.loc 8 1043 7 is_stmt 0 view .LVU50
 257              	.LBE1502:
  44:DSP/biquad.h  ****         {
 258              		.loc 7 44 28 view .LVU51
 259 006a 9042     		cmp	r0, r2
  47:DSP/biquad.h  ****         }
 260              		.loc 7 47 29 view .LVU52
 261 006c 46F8043B 		str	r3, [r6], #4	@ float
  44:DSP/biquad.h  ****         {
 262              		.loc 7 44 9 is_stmt 1 view .LVU53
  44:DSP/biquad.h  ****         {
 263              		.loc 7 44 28 view .LVU54
 264              	.LVL14:
 265              	.LBB1503:
 918:c:\program files\daisytoolchain\arm-none-eabi\include\c++\10.2.1\bits\stl_vector.h ****       { return size_type(this->_M_impl._M_finish - this->_M_impl._M_start); }
 266              		.loc 8 918 7 view .LVU55
 918:c:\program files\daisytoolchain\arm-none-eabi\include\c++\10.2.1\bits\stl_vector.h ****       { return size_type(this->_M_impl._M_finish - this->_M_impl._M_start); }
 267              		.loc 8 918 7 is_stmt 0 view .LVU56
 268              	.LBE1503:
  44:DSP/biquad.h  ****         {
 269              		.loc 7 44 28 view .LVU57
 270 0070 F8D1     		bne	.L9
 271 0072 DBE7     		b	.L8
 272              	.LBE1513:
 273              		.cfi_endproc
 274              	.LFE4763:
 276              		.section	.text._ZN8CvScalerD2Ev,"axG",%progbits,_ZN8CvScalerD5Ev,comdat
 277              		.align	1
 278              		.p2align 2,,3
 279              		.weak	_ZN8CvScalerD2Ev
 280              		.syntax unified
 281              		.thumb
 282              		.thumb_func
 283              		.fpu fpv5-d16
 285              	_ZN8CvScalerD2Ev:
 286              	.LVL15:
 287              	.LFB4786:
 288              		.file 9 "cv_scaler.h"
   1:cv_scaler.h   **** 
   2:cv_scaler.h   **** // Scaling ADC input values and input calibration (if any)
   3:cv_scaler.h   **** #ifndef CV_SCALER_H_
   4:cv_scaler.h   **** #define CV_SCALER_H_
   5:cv_scaler.h   **** 
   6:cv_scaler.h   **** #include "Drivers/adc.h"
   7:cv_scaler.h   **** #include "patch.h"
   8:cv_scaler.h   **** 
   9:cv_scaler.h   **** using namespace std;
  10:cv_scaler.h   **** 
  11:cv_scaler.h   **** enum Law {
  12:cv_scaler.h   ****     LAW_QUADRATIC,
  13:cv_scaler.h   ****     LAW_DECIBELS,
  14:cv_scaler.h   ****     LAW_LINEAR,
ARM GAS  C:\Users\fv-19\AppData\Local\Temp\ccD6R0Rc.s 			page 33


  15:cv_scaler.h   ****     LAW_QUADRATIC_BIPOLAR,
  16:cv_scaler.h   ****     LAW_QUARTIC_BIPOLAR
  17:cv_scaler.h   **** };
  18:cv_scaler.h   **** 
  19:cv_scaler.h   **** struct ChannelSettings{
  20:cv_scaler.h   ****     Law law;
  21:cv_scaler.h   ****     vector<float> range;
  22:cv_scaler.h   ****     bool bipolar;
  23:cv_scaler.h   **** };
  24:cv_scaler.h   **** 
  25:cv_scaler.h   **** class CvScaler
  26:cv_scaler.h   **** {
  27:cv_scaler.h   **** public:
  28:cv_scaler.h   ****     CvScaler(DaisySeed& h) : hardware(h), adc_(h) {
  29:cv_scaler.h   ****      }
  30:cv_scaler.h   ****     ~CvScaler() { }
 289              		.loc 9 30 5 is_stmt 1 view -0
 290              		.cfi_startproc
 291              		@ args = 0, pretend = 0, frame = 0
 292              		@ frame_needed = 0, uses_anonymous_args = 0
 293              		@ link register save eliminated.
 294              	.LBB1514:
 295              	.LBI1514:
 296              		.file 10 "Drivers/adc.h"
   1:Drivers/adc.h **** 
   2:Drivers/adc.h **** // Driver for ADC used for scanning pots.
   3:Drivers/adc.h **** 
   4:Drivers/adc.h **** #ifndef DRIVERS_ADC_H_
   5:Drivers/adc.h **** #define DRIVERS_ADC_H_
   6:Drivers/adc.h **** 
   7:Drivers/adc.h **** #include "daisy_seed.h"
   8:Drivers/adc.h **** #include "daisysp.h"
   9:Drivers/adc.h **** 
  10:Drivers/adc.h **** using namespace daisy;
  11:Drivers/adc.h **** using namespace daisy::seed;
  12:Drivers/adc.h **** 
  13:Drivers/adc.h **** enum AdcChannel {
  14:Drivers/adc.h ****     ADC_CHANNEL_FREQ_KNOB,
  15:Drivers/adc.h ****     ADC_CHANNEL_q_KNOB,
  16:Drivers/adc.h ****     NUM_ADC_CHANNELS
  17:Drivers/adc.h **** };
  18:Drivers/adc.h **** 
  19:Drivers/adc.h **** class Adc
  20:Drivers/adc.h **** {
  21:Drivers/adc.h **** public:
  22:Drivers/adc.h ****     Adc(DaisySeed& h): hardware(h){ }
  23:Drivers/adc.h ****     ~Adc(){}
 297              		.loc 10 23 5 view .LVU59
 298              		.loc 10 23 5 is_stmt 0 view .LVU60
 299              	.LBE1514:
 300              		.loc 9 30 19 view .LVU61
 301 0000 7047     		bx	lr
 302              		.cfi_endproc
 303              	.LFE4786:
 305              		.weak	_ZN8CvScalerD1Ev
 306              		.thumb_set _ZN8CvScalerD1Ev,_ZN8CvScalerD2Ev
 307 0002 00BF     		.section	.text._ZN2UiD2Ev,"axG",%progbits,_ZN2UiD5Ev,comdat
ARM GAS  C:\Users\fv-19\AppData\Local\Temp\ccD6R0Rc.s 			page 34


 308              		.align	1
 309              		.p2align 2,,3
 310              		.weak	_ZN2UiD2Ev
 311              		.syntax unified
 312              		.thumb
 313              		.thumb_func
 314              		.fpu fpv5-d16
 316              	_ZN2UiD2Ev:
 317              	.LVL16:
 318              	.LFB4813:
 319              		.file 11 "ui.h"
   1:ui.h          **** // User Interface 
   2:ui.h          **** #ifndef UI_H_
   3:ui.h          **** #define UI_H_
   4:ui.h          **** 
   5:ui.h          **** #include "Drivers/leds.h"
   6:ui.h          **** #include "Drivers/switches.h"
   7:ui.h          **** #include "patch.h"
   8:ui.h          **** 
   9:ui.h          **** /// @brief basic state structure, to be completed with more options 
  10:ui.h          **** struct filterStates {
  11:ui.h          ****     FilterType filterSelectState;
  12:ui.h          **** };
  13:ui.h          **** 
  14:ui.h          **** // enum FilterType{
  15:ui.h          **** //     TYPE_LPF1,
  16:ui.h          **** //     TYPE_LPF2,
  17:ui.h          **** //     TYPE_HPF1,
  18:ui.h          **** //     TYPE_HPF2,
  19:ui.h          **** //     NONE
  20:ui.h          **** // };
  21:ui.h          **** class Ui
  22:ui.h          **** {
  23:ui.h          **** public:
  24:ui.h          ****     Ui(DaisySeed& h) : hardware(h),leds_(h),switches_(h) {}
  25:ui.h          ****     ~Ui(){}
 320              		.loc 11 25 5 is_stmt 1 view -0
 321              		.cfi_startproc
 322              		@ args = 0, pretend = 0, frame = 0
 323              		@ frame_needed = 0, uses_anonymous_args = 0
 324              		@ link register save eliminated.
 325              	.LBB1515:
 326              	.LBI1515:
 327              		.file 12 "Drivers/switches.h"
   1:Drivers/switches.h **** // Driver for scanning switches 
   2:Drivers/switches.h **** 
   3:Drivers/switches.h **** #ifndef DRIVERS_SWITCHES_H
   4:Drivers/switches.h **** #define DRIVERS_SWITCHES_H
   5:Drivers/switches.h **** 
   6:Drivers/switches.h **** #include "daisy_seed.h"
   7:Drivers/switches.h **** #include "daisysp.h"
   8:Drivers/switches.h **** using namespace daisy;
   9:Drivers/switches.h **** using namespace daisy::seed;
  10:Drivers/switches.h **** 
  11:Drivers/switches.h **** enum SwitchEnum{
  12:Drivers/switches.h ****     SWITCH_MODE_SELECT,
  13:Drivers/switches.h ****     NUM_SWITCHES
ARM GAS  C:\Users\fv-19\AppData\Local\Temp\ccD6R0Rc.s 			page 35


  14:Drivers/switches.h **** };
  15:Drivers/switches.h **** 
  16:Drivers/switches.h **** class Switches
  17:Drivers/switches.h **** {
  18:Drivers/switches.h **** public:
  19:Drivers/switches.h ****     Switches(DaisySeed& h): hardware(h){}
  20:Drivers/switches.h ****     ~Switches(){}
 328              		.loc 12 20 5 view .LVU63
 329              		.loc 12 20 5 is_stmt 0 view .LVU64
 330              	.LBE1515:
 331              	.LBB1516:
 332              	.LBI1516:
 333              		.file 13 "Drivers/leds.h"
   1:Drivers/leds.h **** // Driver for Leds used for scanning pots.
   2:Drivers/leds.h **** 
   3:Drivers/leds.h **** #ifndef DRIVERS_LEDS_H_
   4:Drivers/leds.h **** #define DRIVERS_LEDS_H_
   5:Drivers/leds.h **** 
   6:Drivers/leds.h **** #include "daisy_seed.h"
   7:Drivers/leds.h **** #include "daisysp.h"
   8:Drivers/leds.h **** #include "../../stmlib/stmlib.h"
   9:Drivers/leds.h **** using namespace daisy;
  10:Drivers/leds.h **** using namespace daisy::seed;
  11:Drivers/leds.h **** 
  12:Drivers/leds.h **** enum Led
  13:Drivers/leds.h **** {
  14:Drivers/leds.h ****     SWITCH_MODE_LED,
  15:Drivers/leds.h ****     CUTOFF_LED,
  16:Drivers/leds.h ****     NUMB_LEDS
  17:Drivers/leds.h **** };
  18:Drivers/leds.h **** 
  19:Drivers/leds.h **** class Leds
  20:Drivers/leds.h **** {
  21:Drivers/leds.h **** public:
  22:Drivers/leds.h ****     Leds(DaisySeed& h): hardware(h){}
  23:Drivers/leds.h ****     ~Leds(){}
 334              		.loc 13 23 5 is_stmt 1 view .LVU65
 335              		.loc 13 23 5 is_stmt 0 view .LVU66
 336              	.LBE1516:
 337              		.loc 11 25 11 view .LVU67
 338 0000 7047     		bx	lr
 339              		.cfi_endproc
 340              	.LFE4813:
 342              		.weak	_ZN2UiD1Ev
 343              		.thumb_set _ZN2UiD1Ev,_ZN2UiD2Ev
 344 0002 00BF     		.section	.rodata._ZNSt7__cxx1112basic_stringIcSt11char_traitsIcESaIcEE12_M_constructIPKcEEvT_S8_St
 345              		.align	2
 346              	.LC3:
 347 0000 62617369 		.ascii	"basic_string::_M_construct null not valid\000"
 347      635F7374 
 347      72696E67 
 347      3A3A5F4D 
 347      5F636F6E 
 348              		.section	.text._ZNSt7__cxx1112basic_stringIcSt11char_traitsIcESaIcEE12_M_constructIPKcEEvT_S8_St20
 349              		.align	1
 350              		.p2align 2,,3
 351              		.syntax unified
ARM GAS  C:\Users\fv-19\AppData\Local\Temp\ccD6R0Rc.s 			page 36


 352              		.thumb
 353              		.thumb_func
 354              		.fpu fpv5-d16
 356              	_ZNSt7__cxx1112basic_stringIcSt11char_traitsIcESaIcEE12_M_constructIPKcEEvT_S8_St20forward_iterator
 357              	.LVL17:
 358              	.LFB5575:
 359              		.file 14 "c:\\program files\\daisytoolchain\\arm-none-eabi\\include\\c++\\10.2.1\\bits\\basic_stri
   1:c:\program files\daisytoolchain\arm-none-eabi\include\c++\10.2.1\bits\basic_string.tcc **** // Components for manipulating sequences of characters -*- C++ -*-
   2:c:\program files\daisytoolchain\arm-none-eabi\include\c++\10.2.1\bits\basic_string.tcc **** 
   3:c:\program files\daisytoolchain\arm-none-eabi\include\c++\10.2.1\bits\basic_string.tcc **** // Copyright (C) 1997-2020 Free Software Foundation, Inc.
   4:c:\program files\daisytoolchain\arm-none-eabi\include\c++\10.2.1\bits\basic_string.tcc **** //
   5:c:\program files\daisytoolchain\arm-none-eabi\include\c++\10.2.1\bits\basic_string.tcc **** // This file is part of the GNU ISO C++ Library.  This library is free
   6:c:\program files\daisytoolchain\arm-none-eabi\include\c++\10.2.1\bits\basic_string.tcc **** // software; you can redistribute it and/or modify it under the
   7:c:\program files\daisytoolchain\arm-none-eabi\include\c++\10.2.1\bits\basic_string.tcc **** // terms of the GNU General Public License as published by the
   8:c:\program files\daisytoolchain\arm-none-eabi\include\c++\10.2.1\bits\basic_string.tcc **** // Free Software Foundation; either version 3, or (at your option)
   9:c:\program files\daisytoolchain\arm-none-eabi\include\c++\10.2.1\bits\basic_string.tcc **** // any later version.
  10:c:\program files\daisytoolchain\arm-none-eabi\include\c++\10.2.1\bits\basic_string.tcc **** 
  11:c:\program files\daisytoolchain\arm-none-eabi\include\c++\10.2.1\bits\basic_string.tcc **** // This library is distributed in the hope that it will be useful,
  12:c:\program files\daisytoolchain\arm-none-eabi\include\c++\10.2.1\bits\basic_string.tcc **** // but WITHOUT ANY WARRANTY; without even the implied warranty of
  13:c:\program files\daisytoolchain\arm-none-eabi\include\c++\10.2.1\bits\basic_string.tcc **** // MERCHANTABILITY or FITNESS FOR A PARTICULAR PURPOSE.  See the
  14:c:\program files\daisytoolchain\arm-none-eabi\include\c++\10.2.1\bits\basic_string.tcc **** // GNU General Public License for more details.
  15:c:\program files\daisytoolchain\arm-none-eabi\include\c++\10.2.1\bits\basic_string.tcc **** 
  16:c:\program files\daisytoolchain\arm-none-eabi\include\c++\10.2.1\bits\basic_string.tcc **** // Under Section 7 of GPL version 3, you are granted additional
  17:c:\program files\daisytoolchain\arm-none-eabi\include\c++\10.2.1\bits\basic_string.tcc **** // permissions described in the GCC Runtime Library Exception, version
  18:c:\program files\daisytoolchain\arm-none-eabi\include\c++\10.2.1\bits\basic_string.tcc **** // 3.1, as published by the Free Software Foundation.
  19:c:\program files\daisytoolchain\arm-none-eabi\include\c++\10.2.1\bits\basic_string.tcc **** 
  20:c:\program files\daisytoolchain\arm-none-eabi\include\c++\10.2.1\bits\basic_string.tcc **** // You should have received a copy of the GNU General Public License and
  21:c:\program files\daisytoolchain\arm-none-eabi\include\c++\10.2.1\bits\basic_string.tcc **** // a copy of the GCC Runtime Library Exception along with this program;
  22:c:\program files\daisytoolchain\arm-none-eabi\include\c++\10.2.1\bits\basic_string.tcc **** // see the files COPYING3 and COPYING.RUNTIME respectively.  If not, see
  23:c:\program files\daisytoolchain\arm-none-eabi\include\c++\10.2.1\bits\basic_string.tcc **** // <http://www.gnu.org/licenses/>.
  24:c:\program files\daisytoolchain\arm-none-eabi\include\c++\10.2.1\bits\basic_string.tcc **** 
  25:c:\program files\daisytoolchain\arm-none-eabi\include\c++\10.2.1\bits\basic_string.tcc **** /** @file bits/basic_string.tcc
  26:c:\program files\daisytoolchain\arm-none-eabi\include\c++\10.2.1\bits\basic_string.tcc ****  *  This is an internal header file, included by other library headers.
  27:c:\program files\daisytoolchain\arm-none-eabi\include\c++\10.2.1\bits\basic_string.tcc ****  *  Do not attempt to use it directly. @headername{string}
  28:c:\program files\daisytoolchain\arm-none-eabi\include\c++\10.2.1\bits\basic_string.tcc ****  */
  29:c:\program files\daisytoolchain\arm-none-eabi\include\c++\10.2.1\bits\basic_string.tcc **** 
  30:c:\program files\daisytoolchain\arm-none-eabi\include\c++\10.2.1\bits\basic_string.tcc **** //
  31:c:\program files\daisytoolchain\arm-none-eabi\include\c++\10.2.1\bits\basic_string.tcc **** // ISO C++ 14882: 21  Strings library
  32:c:\program files\daisytoolchain\arm-none-eabi\include\c++\10.2.1\bits\basic_string.tcc **** //
  33:c:\program files\daisytoolchain\arm-none-eabi\include\c++\10.2.1\bits\basic_string.tcc **** 
  34:c:\program files\daisytoolchain\arm-none-eabi\include\c++\10.2.1\bits\basic_string.tcc **** // Written by Jason Merrill based upon the specification by Takanori Adachi
  35:c:\program files\daisytoolchain\arm-none-eabi\include\c++\10.2.1\bits\basic_string.tcc **** // in ANSI X3J16/94-0013R2.  Rewritten by Nathan Myers to ISO-14882.
  36:c:\program files\daisytoolchain\arm-none-eabi\include\c++\10.2.1\bits\basic_string.tcc **** // Non-reference-counted implementation written by Paolo Carlini and
  37:c:\program files\daisytoolchain\arm-none-eabi\include\c++\10.2.1\bits\basic_string.tcc **** // updated by Jonathan Wakely for ISO-14882-2011.
  38:c:\program files\daisytoolchain\arm-none-eabi\include\c++\10.2.1\bits\basic_string.tcc **** 
  39:c:\program files\daisytoolchain\arm-none-eabi\include\c++\10.2.1\bits\basic_string.tcc **** #ifndef _BASIC_STRING_TCC
  40:c:\program files\daisytoolchain\arm-none-eabi\include\c++\10.2.1\bits\basic_string.tcc **** #define _BASIC_STRING_TCC 1
  41:c:\program files\daisytoolchain\arm-none-eabi\include\c++\10.2.1\bits\basic_string.tcc **** 
  42:c:\program files\daisytoolchain\arm-none-eabi\include\c++\10.2.1\bits\basic_string.tcc **** #pragma GCC system_header
  43:c:\program files\daisytoolchain\arm-none-eabi\include\c++\10.2.1\bits\basic_string.tcc **** 
  44:c:\program files\daisytoolchain\arm-none-eabi\include\c++\10.2.1\bits\basic_string.tcc **** #include <bits/cxxabi_forced.h>
  45:c:\program files\daisytoolchain\arm-none-eabi\include\c++\10.2.1\bits\basic_string.tcc **** 
  46:c:\program files\daisytoolchain\arm-none-eabi\include\c++\10.2.1\bits\basic_string.tcc **** namespace std _GLIBCXX_VISIBILITY(default)
  47:c:\program files\daisytoolchain\arm-none-eabi\include\c++\10.2.1\bits\basic_string.tcc **** {
  48:c:\program files\daisytoolchain\arm-none-eabi\include\c++\10.2.1\bits\basic_string.tcc **** _GLIBCXX_BEGIN_NAMESPACE_VERSION
  49:c:\program files\daisytoolchain\arm-none-eabi\include\c++\10.2.1\bits\basic_string.tcc **** 
  50:c:\program files\daisytoolchain\arm-none-eabi\include\c++\10.2.1\bits\basic_string.tcc **** #if _GLIBCXX_USE_CXX11_ABI
ARM GAS  C:\Users\fv-19\AppData\Local\Temp\ccD6R0Rc.s 			page 37


  51:c:\program files\daisytoolchain\arm-none-eabi\include\c++\10.2.1\bits\basic_string.tcc **** 
  52:c:\program files\daisytoolchain\arm-none-eabi\include\c++\10.2.1\bits\basic_string.tcc ****   template<typename _CharT, typename _Traits, typename _Alloc>
  53:c:\program files\daisytoolchain\arm-none-eabi\include\c++\10.2.1\bits\basic_string.tcc ****     const typename basic_string<_CharT, _Traits, _Alloc>::size_type
  54:c:\program files\daisytoolchain\arm-none-eabi\include\c++\10.2.1\bits\basic_string.tcc ****     basic_string<_CharT, _Traits, _Alloc>::npos;
  55:c:\program files\daisytoolchain\arm-none-eabi\include\c++\10.2.1\bits\basic_string.tcc **** 
  56:c:\program files\daisytoolchain\arm-none-eabi\include\c++\10.2.1\bits\basic_string.tcc ****   template<typename _CharT, typename _Traits, typename _Alloc>
  57:c:\program files\daisytoolchain\arm-none-eabi\include\c++\10.2.1\bits\basic_string.tcc ****     void
  58:c:\program files\daisytoolchain\arm-none-eabi\include\c++\10.2.1\bits\basic_string.tcc ****     basic_string<_CharT, _Traits, _Alloc>::
  59:c:\program files\daisytoolchain\arm-none-eabi\include\c++\10.2.1\bits\basic_string.tcc ****     swap(basic_string& __s) _GLIBCXX_NOEXCEPT
  60:c:\program files\daisytoolchain\arm-none-eabi\include\c++\10.2.1\bits\basic_string.tcc ****     {
  61:c:\program files\daisytoolchain\arm-none-eabi\include\c++\10.2.1\bits\basic_string.tcc ****       if (this == &__s)
  62:c:\program files\daisytoolchain\arm-none-eabi\include\c++\10.2.1\bits\basic_string.tcc **** 	return;
  63:c:\program files\daisytoolchain\arm-none-eabi\include\c++\10.2.1\bits\basic_string.tcc **** 
  64:c:\program files\daisytoolchain\arm-none-eabi\include\c++\10.2.1\bits\basic_string.tcc ****       _Alloc_traits::_S_on_swap(_M_get_allocator(), __s._M_get_allocator());
  65:c:\program files\daisytoolchain\arm-none-eabi\include\c++\10.2.1\bits\basic_string.tcc **** 
  66:c:\program files\daisytoolchain\arm-none-eabi\include\c++\10.2.1\bits\basic_string.tcc ****       if (_M_is_local())
  67:c:\program files\daisytoolchain\arm-none-eabi\include\c++\10.2.1\bits\basic_string.tcc **** 	if (__s._M_is_local())
  68:c:\program files\daisytoolchain\arm-none-eabi\include\c++\10.2.1\bits\basic_string.tcc **** 	  {
  69:c:\program files\daisytoolchain\arm-none-eabi\include\c++\10.2.1\bits\basic_string.tcc **** 	    if (length() && __s.length())
  70:c:\program files\daisytoolchain\arm-none-eabi\include\c++\10.2.1\bits\basic_string.tcc **** 	      {
  71:c:\program files\daisytoolchain\arm-none-eabi\include\c++\10.2.1\bits\basic_string.tcc **** 		_CharT __tmp_data[_S_local_capacity + 1];
  72:c:\program files\daisytoolchain\arm-none-eabi\include\c++\10.2.1\bits\basic_string.tcc **** 		traits_type::copy(__tmp_data, __s._M_local_buf,
  73:c:\program files\daisytoolchain\arm-none-eabi\include\c++\10.2.1\bits\basic_string.tcc **** 				  _S_local_capacity + 1);
  74:c:\program files\daisytoolchain\arm-none-eabi\include\c++\10.2.1\bits\basic_string.tcc **** 		traits_type::copy(__s._M_local_buf, _M_local_buf,
  75:c:\program files\daisytoolchain\arm-none-eabi\include\c++\10.2.1\bits\basic_string.tcc **** 				  _S_local_capacity + 1);
  76:c:\program files\daisytoolchain\arm-none-eabi\include\c++\10.2.1\bits\basic_string.tcc **** 		traits_type::copy(_M_local_buf, __tmp_data,
  77:c:\program files\daisytoolchain\arm-none-eabi\include\c++\10.2.1\bits\basic_string.tcc **** 				  _S_local_capacity + 1);
  78:c:\program files\daisytoolchain\arm-none-eabi\include\c++\10.2.1\bits\basic_string.tcc **** 	      }
  79:c:\program files\daisytoolchain\arm-none-eabi\include\c++\10.2.1\bits\basic_string.tcc **** 	    else if (__s.length())
  80:c:\program files\daisytoolchain\arm-none-eabi\include\c++\10.2.1\bits\basic_string.tcc **** 	      {
  81:c:\program files\daisytoolchain\arm-none-eabi\include\c++\10.2.1\bits\basic_string.tcc **** 		traits_type::copy(_M_local_buf, __s._M_local_buf,
  82:c:\program files\daisytoolchain\arm-none-eabi\include\c++\10.2.1\bits\basic_string.tcc **** 				  _S_local_capacity + 1);
  83:c:\program files\daisytoolchain\arm-none-eabi\include\c++\10.2.1\bits\basic_string.tcc **** 		_M_length(__s.length());
  84:c:\program files\daisytoolchain\arm-none-eabi\include\c++\10.2.1\bits\basic_string.tcc **** 		__s._M_set_length(0);
  85:c:\program files\daisytoolchain\arm-none-eabi\include\c++\10.2.1\bits\basic_string.tcc **** 		return;
  86:c:\program files\daisytoolchain\arm-none-eabi\include\c++\10.2.1\bits\basic_string.tcc **** 	      }
  87:c:\program files\daisytoolchain\arm-none-eabi\include\c++\10.2.1\bits\basic_string.tcc **** 	    else if (length())
  88:c:\program files\daisytoolchain\arm-none-eabi\include\c++\10.2.1\bits\basic_string.tcc **** 	      {
  89:c:\program files\daisytoolchain\arm-none-eabi\include\c++\10.2.1\bits\basic_string.tcc **** 		traits_type::copy(__s._M_local_buf, _M_local_buf,
  90:c:\program files\daisytoolchain\arm-none-eabi\include\c++\10.2.1\bits\basic_string.tcc **** 				  _S_local_capacity + 1);
  91:c:\program files\daisytoolchain\arm-none-eabi\include\c++\10.2.1\bits\basic_string.tcc **** 		__s._M_length(length());
  92:c:\program files\daisytoolchain\arm-none-eabi\include\c++\10.2.1\bits\basic_string.tcc **** 		_M_set_length(0);
  93:c:\program files\daisytoolchain\arm-none-eabi\include\c++\10.2.1\bits\basic_string.tcc **** 		return;
  94:c:\program files\daisytoolchain\arm-none-eabi\include\c++\10.2.1\bits\basic_string.tcc **** 	      }
  95:c:\program files\daisytoolchain\arm-none-eabi\include\c++\10.2.1\bits\basic_string.tcc **** 	  }
  96:c:\program files\daisytoolchain\arm-none-eabi\include\c++\10.2.1\bits\basic_string.tcc **** 	else
  97:c:\program files\daisytoolchain\arm-none-eabi\include\c++\10.2.1\bits\basic_string.tcc **** 	  {
  98:c:\program files\daisytoolchain\arm-none-eabi\include\c++\10.2.1\bits\basic_string.tcc **** 	    const size_type __tmp_capacity = __s._M_allocated_capacity;
  99:c:\program files\daisytoolchain\arm-none-eabi\include\c++\10.2.1\bits\basic_string.tcc **** 	    traits_type::copy(__s._M_local_buf, _M_local_buf,
 100:c:\program files\daisytoolchain\arm-none-eabi\include\c++\10.2.1\bits\basic_string.tcc **** 			      _S_local_capacity + 1);
 101:c:\program files\daisytoolchain\arm-none-eabi\include\c++\10.2.1\bits\basic_string.tcc **** 	    _M_data(__s._M_data());
 102:c:\program files\daisytoolchain\arm-none-eabi\include\c++\10.2.1\bits\basic_string.tcc **** 	    __s._M_data(__s._M_local_buf);
 103:c:\program files\daisytoolchain\arm-none-eabi\include\c++\10.2.1\bits\basic_string.tcc **** 	    _M_capacity(__tmp_capacity);
 104:c:\program files\daisytoolchain\arm-none-eabi\include\c++\10.2.1\bits\basic_string.tcc **** 	  }
 105:c:\program files\daisytoolchain\arm-none-eabi\include\c++\10.2.1\bits\basic_string.tcc ****       else
 106:c:\program files\daisytoolchain\arm-none-eabi\include\c++\10.2.1\bits\basic_string.tcc **** 	{
 107:c:\program files\daisytoolchain\arm-none-eabi\include\c++\10.2.1\bits\basic_string.tcc **** 	  const size_type __tmp_capacity = _M_allocated_capacity;
ARM GAS  C:\Users\fv-19\AppData\Local\Temp\ccD6R0Rc.s 			page 38


 108:c:\program files\daisytoolchain\arm-none-eabi\include\c++\10.2.1\bits\basic_string.tcc **** 	  if (__s._M_is_local())
 109:c:\program files\daisytoolchain\arm-none-eabi\include\c++\10.2.1\bits\basic_string.tcc **** 	    {
 110:c:\program files\daisytoolchain\arm-none-eabi\include\c++\10.2.1\bits\basic_string.tcc **** 	      traits_type::copy(_M_local_buf, __s._M_local_buf,
 111:c:\program files\daisytoolchain\arm-none-eabi\include\c++\10.2.1\bits\basic_string.tcc **** 				_S_local_capacity + 1);
 112:c:\program files\daisytoolchain\arm-none-eabi\include\c++\10.2.1\bits\basic_string.tcc **** 	      __s._M_data(_M_data());
 113:c:\program files\daisytoolchain\arm-none-eabi\include\c++\10.2.1\bits\basic_string.tcc **** 	      _M_data(_M_local_buf);
 114:c:\program files\daisytoolchain\arm-none-eabi\include\c++\10.2.1\bits\basic_string.tcc **** 	    }
 115:c:\program files\daisytoolchain\arm-none-eabi\include\c++\10.2.1\bits\basic_string.tcc **** 	  else
 116:c:\program files\daisytoolchain\arm-none-eabi\include\c++\10.2.1\bits\basic_string.tcc **** 	    {
 117:c:\program files\daisytoolchain\arm-none-eabi\include\c++\10.2.1\bits\basic_string.tcc **** 	      pointer __tmp_ptr = _M_data();
 118:c:\program files\daisytoolchain\arm-none-eabi\include\c++\10.2.1\bits\basic_string.tcc **** 	      _M_data(__s._M_data());
 119:c:\program files\daisytoolchain\arm-none-eabi\include\c++\10.2.1\bits\basic_string.tcc **** 	      __s._M_data(__tmp_ptr);
 120:c:\program files\daisytoolchain\arm-none-eabi\include\c++\10.2.1\bits\basic_string.tcc **** 	      _M_capacity(__s._M_allocated_capacity);
 121:c:\program files\daisytoolchain\arm-none-eabi\include\c++\10.2.1\bits\basic_string.tcc **** 	    }
 122:c:\program files\daisytoolchain\arm-none-eabi\include\c++\10.2.1\bits\basic_string.tcc **** 	  __s._M_capacity(__tmp_capacity);
 123:c:\program files\daisytoolchain\arm-none-eabi\include\c++\10.2.1\bits\basic_string.tcc **** 	}
 124:c:\program files\daisytoolchain\arm-none-eabi\include\c++\10.2.1\bits\basic_string.tcc **** 
 125:c:\program files\daisytoolchain\arm-none-eabi\include\c++\10.2.1\bits\basic_string.tcc ****       const size_type __tmp_length = length();
 126:c:\program files\daisytoolchain\arm-none-eabi\include\c++\10.2.1\bits\basic_string.tcc ****       _M_length(__s.length());
 127:c:\program files\daisytoolchain\arm-none-eabi\include\c++\10.2.1\bits\basic_string.tcc ****       __s._M_length(__tmp_length);
 128:c:\program files\daisytoolchain\arm-none-eabi\include\c++\10.2.1\bits\basic_string.tcc ****     }
 129:c:\program files\daisytoolchain\arm-none-eabi\include\c++\10.2.1\bits\basic_string.tcc **** 
 130:c:\program files\daisytoolchain\arm-none-eabi\include\c++\10.2.1\bits\basic_string.tcc ****   template<typename _CharT, typename _Traits, typename _Alloc>
 131:c:\program files\daisytoolchain\arm-none-eabi\include\c++\10.2.1\bits\basic_string.tcc ****     typename basic_string<_CharT, _Traits, _Alloc>::pointer
 132:c:\program files\daisytoolchain\arm-none-eabi\include\c++\10.2.1\bits\basic_string.tcc ****     basic_string<_CharT, _Traits, _Alloc>::
 133:c:\program files\daisytoolchain\arm-none-eabi\include\c++\10.2.1\bits\basic_string.tcc ****     _M_create(size_type& __capacity, size_type __old_capacity)
 134:c:\program files\daisytoolchain\arm-none-eabi\include\c++\10.2.1\bits\basic_string.tcc ****     {
 135:c:\program files\daisytoolchain\arm-none-eabi\include\c++\10.2.1\bits\basic_string.tcc ****       // _GLIBCXX_RESOLVE_LIB_DEFECTS
 136:c:\program files\daisytoolchain\arm-none-eabi\include\c++\10.2.1\bits\basic_string.tcc ****       // 83.  String::npos vs. string::max_size()
 137:c:\program files\daisytoolchain\arm-none-eabi\include\c++\10.2.1\bits\basic_string.tcc ****       if (__capacity > max_size())
 138:c:\program files\daisytoolchain\arm-none-eabi\include\c++\10.2.1\bits\basic_string.tcc **** 	std::__throw_length_error(__N("basic_string::_M_create"));
 139:c:\program files\daisytoolchain\arm-none-eabi\include\c++\10.2.1\bits\basic_string.tcc **** 
 140:c:\program files\daisytoolchain\arm-none-eabi\include\c++\10.2.1\bits\basic_string.tcc ****       // The below implements an exponential growth policy, necessary to
 141:c:\program files\daisytoolchain\arm-none-eabi\include\c++\10.2.1\bits\basic_string.tcc ****       // meet amortized linear time requirements of the library: see
 142:c:\program files\daisytoolchain\arm-none-eabi\include\c++\10.2.1\bits\basic_string.tcc ****       // http://gcc.gnu.org/ml/libstdc++/2001-07/msg00085.html.
 143:c:\program files\daisytoolchain\arm-none-eabi\include\c++\10.2.1\bits\basic_string.tcc ****       if (__capacity > __old_capacity && __capacity < 2 * __old_capacity)
 144:c:\program files\daisytoolchain\arm-none-eabi\include\c++\10.2.1\bits\basic_string.tcc **** 	{
 145:c:\program files\daisytoolchain\arm-none-eabi\include\c++\10.2.1\bits\basic_string.tcc **** 	  __capacity = 2 * __old_capacity;
 146:c:\program files\daisytoolchain\arm-none-eabi\include\c++\10.2.1\bits\basic_string.tcc **** 	  // Never allocate a string bigger than max_size.
 147:c:\program files\daisytoolchain\arm-none-eabi\include\c++\10.2.1\bits\basic_string.tcc **** 	  if (__capacity > max_size())
 148:c:\program files\daisytoolchain\arm-none-eabi\include\c++\10.2.1\bits\basic_string.tcc **** 	    __capacity = max_size();
 149:c:\program files\daisytoolchain\arm-none-eabi\include\c++\10.2.1\bits\basic_string.tcc **** 	}
 150:c:\program files\daisytoolchain\arm-none-eabi\include\c++\10.2.1\bits\basic_string.tcc **** 
 151:c:\program files\daisytoolchain\arm-none-eabi\include\c++\10.2.1\bits\basic_string.tcc ****       // NB: Need an array of char_type[__capacity], plus a terminating
 152:c:\program files\daisytoolchain\arm-none-eabi\include\c++\10.2.1\bits\basic_string.tcc ****       // null char_type() element.
 153:c:\program files\daisytoolchain\arm-none-eabi\include\c++\10.2.1\bits\basic_string.tcc ****       return _Alloc_traits::allocate(_M_get_allocator(), __capacity + 1);
 154:c:\program files\daisytoolchain\arm-none-eabi\include\c++\10.2.1\bits\basic_string.tcc ****     }
 155:c:\program files\daisytoolchain\arm-none-eabi\include\c++\10.2.1\bits\basic_string.tcc **** 
 156:c:\program files\daisytoolchain\arm-none-eabi\include\c++\10.2.1\bits\basic_string.tcc ****   // NB: This is the special case for Input Iterators, used in
 157:c:\program files\daisytoolchain\arm-none-eabi\include\c++\10.2.1\bits\basic_string.tcc ****   // istreambuf_iterators, etc.
 158:c:\program files\daisytoolchain\arm-none-eabi\include\c++\10.2.1\bits\basic_string.tcc ****   // Input Iterators have a cost structure very different from
 159:c:\program files\daisytoolchain\arm-none-eabi\include\c++\10.2.1\bits\basic_string.tcc ****   // pointers, calling for a different coding style.
 160:c:\program files\daisytoolchain\arm-none-eabi\include\c++\10.2.1\bits\basic_string.tcc ****   template<typename _CharT, typename _Traits, typename _Alloc>
 161:c:\program files\daisytoolchain\arm-none-eabi\include\c++\10.2.1\bits\basic_string.tcc ****     template<typename _InIterator>
 162:c:\program files\daisytoolchain\arm-none-eabi\include\c++\10.2.1\bits\basic_string.tcc ****       void
 163:c:\program files\daisytoolchain\arm-none-eabi\include\c++\10.2.1\bits\basic_string.tcc ****       basic_string<_CharT, _Traits, _Alloc>::
 164:c:\program files\daisytoolchain\arm-none-eabi\include\c++\10.2.1\bits\basic_string.tcc ****       _M_construct(_InIterator __beg, _InIterator __end,
ARM GAS  C:\Users\fv-19\AppData\Local\Temp\ccD6R0Rc.s 			page 39


 165:c:\program files\daisytoolchain\arm-none-eabi\include\c++\10.2.1\bits\basic_string.tcc **** 		   std::input_iterator_tag)
 166:c:\program files\daisytoolchain\arm-none-eabi\include\c++\10.2.1\bits\basic_string.tcc ****       {
 167:c:\program files\daisytoolchain\arm-none-eabi\include\c++\10.2.1\bits\basic_string.tcc **** 	size_type __len = 0;
 168:c:\program files\daisytoolchain\arm-none-eabi\include\c++\10.2.1\bits\basic_string.tcc **** 	size_type __capacity = size_type(_S_local_capacity);
 169:c:\program files\daisytoolchain\arm-none-eabi\include\c++\10.2.1\bits\basic_string.tcc **** 
 170:c:\program files\daisytoolchain\arm-none-eabi\include\c++\10.2.1\bits\basic_string.tcc **** 	while (__beg != __end && __len < __capacity)
 171:c:\program files\daisytoolchain\arm-none-eabi\include\c++\10.2.1\bits\basic_string.tcc **** 	  {
 172:c:\program files\daisytoolchain\arm-none-eabi\include\c++\10.2.1\bits\basic_string.tcc **** 	    _M_data()[__len++] = *__beg;
 173:c:\program files\daisytoolchain\arm-none-eabi\include\c++\10.2.1\bits\basic_string.tcc **** 	    ++__beg;
 174:c:\program files\daisytoolchain\arm-none-eabi\include\c++\10.2.1\bits\basic_string.tcc **** 	  }
 175:c:\program files\daisytoolchain\arm-none-eabi\include\c++\10.2.1\bits\basic_string.tcc **** 
 176:c:\program files\daisytoolchain\arm-none-eabi\include\c++\10.2.1\bits\basic_string.tcc **** 	__try
 177:c:\program files\daisytoolchain\arm-none-eabi\include\c++\10.2.1\bits\basic_string.tcc **** 	  {
 178:c:\program files\daisytoolchain\arm-none-eabi\include\c++\10.2.1\bits\basic_string.tcc **** 	    while (__beg != __end)
 179:c:\program files\daisytoolchain\arm-none-eabi\include\c++\10.2.1\bits\basic_string.tcc **** 	      {
 180:c:\program files\daisytoolchain\arm-none-eabi\include\c++\10.2.1\bits\basic_string.tcc **** 		if (__len == __capacity)
 181:c:\program files\daisytoolchain\arm-none-eabi\include\c++\10.2.1\bits\basic_string.tcc **** 		  {
 182:c:\program files\daisytoolchain\arm-none-eabi\include\c++\10.2.1\bits\basic_string.tcc **** 		    // Allocate more space.
 183:c:\program files\daisytoolchain\arm-none-eabi\include\c++\10.2.1\bits\basic_string.tcc **** 		    __capacity = __len + 1;
 184:c:\program files\daisytoolchain\arm-none-eabi\include\c++\10.2.1\bits\basic_string.tcc **** 		    pointer __another = _M_create(__capacity, __len);
 185:c:\program files\daisytoolchain\arm-none-eabi\include\c++\10.2.1\bits\basic_string.tcc **** 		    this->_S_copy(__another, _M_data(), __len);
 186:c:\program files\daisytoolchain\arm-none-eabi\include\c++\10.2.1\bits\basic_string.tcc **** 		    _M_dispose();
 187:c:\program files\daisytoolchain\arm-none-eabi\include\c++\10.2.1\bits\basic_string.tcc **** 		    _M_data(__another);
 188:c:\program files\daisytoolchain\arm-none-eabi\include\c++\10.2.1\bits\basic_string.tcc **** 		    _M_capacity(__capacity);
 189:c:\program files\daisytoolchain\arm-none-eabi\include\c++\10.2.1\bits\basic_string.tcc **** 		  }
 190:c:\program files\daisytoolchain\arm-none-eabi\include\c++\10.2.1\bits\basic_string.tcc **** 		_M_data()[__len++] = *__beg;
 191:c:\program files\daisytoolchain\arm-none-eabi\include\c++\10.2.1\bits\basic_string.tcc **** 		++__beg;
 192:c:\program files\daisytoolchain\arm-none-eabi\include\c++\10.2.1\bits\basic_string.tcc **** 	      }
 193:c:\program files\daisytoolchain\arm-none-eabi\include\c++\10.2.1\bits\basic_string.tcc **** 	  }
 194:c:\program files\daisytoolchain\arm-none-eabi\include\c++\10.2.1\bits\basic_string.tcc **** 	__catch(...)
 195:c:\program files\daisytoolchain\arm-none-eabi\include\c++\10.2.1\bits\basic_string.tcc **** 	  {
 196:c:\program files\daisytoolchain\arm-none-eabi\include\c++\10.2.1\bits\basic_string.tcc **** 	    _M_dispose();
 197:c:\program files\daisytoolchain\arm-none-eabi\include\c++\10.2.1\bits\basic_string.tcc **** 	    __throw_exception_again;
 198:c:\program files\daisytoolchain\arm-none-eabi\include\c++\10.2.1\bits\basic_string.tcc **** 	  }
 199:c:\program files\daisytoolchain\arm-none-eabi\include\c++\10.2.1\bits\basic_string.tcc **** 
 200:c:\program files\daisytoolchain\arm-none-eabi\include\c++\10.2.1\bits\basic_string.tcc **** 	_M_set_length(__len);
 201:c:\program files\daisytoolchain\arm-none-eabi\include\c++\10.2.1\bits\basic_string.tcc ****       }
 202:c:\program files\daisytoolchain\arm-none-eabi\include\c++\10.2.1\bits\basic_string.tcc **** 
 203:c:\program files\daisytoolchain\arm-none-eabi\include\c++\10.2.1\bits\basic_string.tcc ****   template<typename _CharT, typename _Traits, typename _Alloc>
 204:c:\program files\daisytoolchain\arm-none-eabi\include\c++\10.2.1\bits\basic_string.tcc ****     template<typename _InIterator>
 205:c:\program files\daisytoolchain\arm-none-eabi\include\c++\10.2.1\bits\basic_string.tcc ****       void
 206:c:\program files\daisytoolchain\arm-none-eabi\include\c++\10.2.1\bits\basic_string.tcc ****       basic_string<_CharT, _Traits, _Alloc>::
 360              		.loc 14 206 7 is_stmt 1 view -0
 361              		.cfi_startproc
 362              		@ args = 0, pretend = 0, frame = 8
 363              		@ frame_needed = 0, uses_anonymous_args = 0
 364              		.loc 14 206 7 is_stmt 0 view .LVU69
 365 0000 70B5     		push	{r4, r5, r6, lr}
 366              		.cfi_def_cfa_offset 16
 367              		.cfi_offset 4, -16
 368              		.cfi_offset 5, -12
 369              		.cfi_offset 6, -8
 370              		.cfi_offset 14, -4
 371 0002 0546     		mov	r5, r0
 372 0004 82B0     		sub	sp, sp, #8
 373              		.cfi_def_cfa_offset 24
 374              		.loc 14 206 7 view .LVU70
ARM GAS  C:\Users\fv-19\AppData\Local\Temp\ccD6R0Rc.s 			page 40


 375 0006 0E46     		mov	r6, r1
 207:c:\program files\daisytoolchain\arm-none-eabi\include\c++\10.2.1\bits\basic_string.tcc ****       _M_construct(_InIterator __beg, _InIterator __end,
 208:c:\program files\daisytoolchain\arm-none-eabi\include\c++\10.2.1\bits\basic_string.tcc **** 		   std::forward_iterator_tag)
 209:c:\program files\daisytoolchain\arm-none-eabi\include\c++\10.2.1\bits\basic_string.tcc ****       {
 210:c:\program files\daisytoolchain\arm-none-eabi\include\c++\10.2.1\bits\basic_string.tcc **** 	// NB: Not required, but considered best practice.
 211:c:\program files\daisytoolchain\arm-none-eabi\include\c++\10.2.1\bits\basic_string.tcc **** 	if (__gnu_cxx::__is_null_pointer(__beg) && __beg != __end)
 376              		.loc 14 211 42 view .LVU71
 377 0008 02B1     		cbz	r2, .L24
 378 000a 41B3     		cbz	r1, .L40
 379              	.L24:
 380              	.LVL18:
 381              	.LBB1546:
 382              	.LBI1546:
 383              		.file 15 "c:\\program files\\daisytoolchain\\arm-none-eabi\\include\\c++\\10.2.1\\bits\\stl_iterat
   1:c:\program files\daisytoolchain\arm-none-eabi\include\c++\10.2.1\bits\stl_iterator_base_funcs.h **** // Functions used by iterators -*- C++ -*-
   2:c:\program files\daisytoolchain\arm-none-eabi\include\c++\10.2.1\bits\stl_iterator_base_funcs.h **** 
   3:c:\program files\daisytoolchain\arm-none-eabi\include\c++\10.2.1\bits\stl_iterator_base_funcs.h **** // Copyright (C) 2001-2020 Free Software Foundation, Inc.
   4:c:\program files\daisytoolchain\arm-none-eabi\include\c++\10.2.1\bits\stl_iterator_base_funcs.h **** //
   5:c:\program files\daisytoolchain\arm-none-eabi\include\c++\10.2.1\bits\stl_iterator_base_funcs.h **** // This file is part of the GNU ISO C++ Library.  This library is free
   6:c:\program files\daisytoolchain\arm-none-eabi\include\c++\10.2.1\bits\stl_iterator_base_funcs.h **** // software; you can redistribute it and/or modify it under the
   7:c:\program files\daisytoolchain\arm-none-eabi\include\c++\10.2.1\bits\stl_iterator_base_funcs.h **** // terms of the GNU General Public License as published by the
   8:c:\program files\daisytoolchain\arm-none-eabi\include\c++\10.2.1\bits\stl_iterator_base_funcs.h **** // Free Software Foundation; either version 3, or (at your option)
   9:c:\program files\daisytoolchain\arm-none-eabi\include\c++\10.2.1\bits\stl_iterator_base_funcs.h **** // any later version.
  10:c:\program files\daisytoolchain\arm-none-eabi\include\c++\10.2.1\bits\stl_iterator_base_funcs.h **** 
  11:c:\program files\daisytoolchain\arm-none-eabi\include\c++\10.2.1\bits\stl_iterator_base_funcs.h **** // This library is distributed in the hope that it will be useful,
  12:c:\program files\daisytoolchain\arm-none-eabi\include\c++\10.2.1\bits\stl_iterator_base_funcs.h **** // but WITHOUT ANY WARRANTY; without even the implied warranty of
  13:c:\program files\daisytoolchain\arm-none-eabi\include\c++\10.2.1\bits\stl_iterator_base_funcs.h **** // MERCHANTABILITY or FITNESS FOR A PARTICULAR PURPOSE.  See the
  14:c:\program files\daisytoolchain\arm-none-eabi\include\c++\10.2.1\bits\stl_iterator_base_funcs.h **** // GNU General Public License for more details.
  15:c:\program files\daisytoolchain\arm-none-eabi\include\c++\10.2.1\bits\stl_iterator_base_funcs.h **** 
  16:c:\program files\daisytoolchain\arm-none-eabi\include\c++\10.2.1\bits\stl_iterator_base_funcs.h **** // Under Section 7 of GPL version 3, you are granted additional
  17:c:\program files\daisytoolchain\arm-none-eabi\include\c++\10.2.1\bits\stl_iterator_base_funcs.h **** // permissions described in the GCC Runtime Library Exception, version
  18:c:\program files\daisytoolchain\arm-none-eabi\include\c++\10.2.1\bits\stl_iterator_base_funcs.h **** // 3.1, as published by the Free Software Foundation.
  19:c:\program files\daisytoolchain\arm-none-eabi\include\c++\10.2.1\bits\stl_iterator_base_funcs.h **** 
  20:c:\program files\daisytoolchain\arm-none-eabi\include\c++\10.2.1\bits\stl_iterator_base_funcs.h **** // You should have received a copy of the GNU General Public License and
  21:c:\program files\daisytoolchain\arm-none-eabi\include\c++\10.2.1\bits\stl_iterator_base_funcs.h **** // a copy of the GCC Runtime Library Exception along with this program;
  22:c:\program files\daisytoolchain\arm-none-eabi\include\c++\10.2.1\bits\stl_iterator_base_funcs.h **** // see the files COPYING3 and COPYING.RUNTIME respectively.  If not, see
  23:c:\program files\daisytoolchain\arm-none-eabi\include\c++\10.2.1\bits\stl_iterator_base_funcs.h **** // <http://www.gnu.org/licenses/>.
  24:c:\program files\daisytoolchain\arm-none-eabi\include\c++\10.2.1\bits\stl_iterator_base_funcs.h **** 
  25:c:\program files\daisytoolchain\arm-none-eabi\include\c++\10.2.1\bits\stl_iterator_base_funcs.h **** /*
  26:c:\program files\daisytoolchain\arm-none-eabi\include\c++\10.2.1\bits\stl_iterator_base_funcs.h ****  *
  27:c:\program files\daisytoolchain\arm-none-eabi\include\c++\10.2.1\bits\stl_iterator_base_funcs.h ****  * Copyright (c) 1994
  28:c:\program files\daisytoolchain\arm-none-eabi\include\c++\10.2.1\bits\stl_iterator_base_funcs.h ****  * Hewlett-Packard Company
  29:c:\program files\daisytoolchain\arm-none-eabi\include\c++\10.2.1\bits\stl_iterator_base_funcs.h ****  *
  30:c:\program files\daisytoolchain\arm-none-eabi\include\c++\10.2.1\bits\stl_iterator_base_funcs.h ****  * Permission to use, copy, modify, distribute and sell this software
  31:c:\program files\daisytoolchain\arm-none-eabi\include\c++\10.2.1\bits\stl_iterator_base_funcs.h ****  * and its documentation for any purpose is hereby granted without fee,
  32:c:\program files\daisytoolchain\arm-none-eabi\include\c++\10.2.1\bits\stl_iterator_base_funcs.h ****  * provided that the above copyright notice appear in all copies and
  33:c:\program files\daisytoolchain\arm-none-eabi\include\c++\10.2.1\bits\stl_iterator_base_funcs.h ****  * that both that copyright notice and this permission notice appear
  34:c:\program files\daisytoolchain\arm-none-eabi\include\c++\10.2.1\bits\stl_iterator_base_funcs.h ****  * in supporting documentation.  Hewlett-Packard Company makes no
  35:c:\program files\daisytoolchain\arm-none-eabi\include\c++\10.2.1\bits\stl_iterator_base_funcs.h ****  * representations about the suitability of this software for any
  36:c:\program files\daisytoolchain\arm-none-eabi\include\c++\10.2.1\bits\stl_iterator_base_funcs.h ****  * purpose.  It is provided "as is" without express or implied warranty.
  37:c:\program files\daisytoolchain\arm-none-eabi\include\c++\10.2.1\bits\stl_iterator_base_funcs.h ****  *
  38:c:\program files\daisytoolchain\arm-none-eabi\include\c++\10.2.1\bits\stl_iterator_base_funcs.h ****  *
  39:c:\program files\daisytoolchain\arm-none-eabi\include\c++\10.2.1\bits\stl_iterator_base_funcs.h ****  * Copyright (c) 1996-1998
  40:c:\program files\daisytoolchain\arm-none-eabi\include\c++\10.2.1\bits\stl_iterator_base_funcs.h ****  * Silicon Graphics Computer Systems, Inc.
  41:c:\program files\daisytoolchain\arm-none-eabi\include\c++\10.2.1\bits\stl_iterator_base_funcs.h ****  *
  42:c:\program files\daisytoolchain\arm-none-eabi\include\c++\10.2.1\bits\stl_iterator_base_funcs.h ****  * Permission to use, copy, modify, distribute and sell this software
  43:c:\program files\daisytoolchain\arm-none-eabi\include\c++\10.2.1\bits\stl_iterator_base_funcs.h ****  * and its documentation for any purpose is hereby granted without fee,
ARM GAS  C:\Users\fv-19\AppData\Local\Temp\ccD6R0Rc.s 			page 41


  44:c:\program files\daisytoolchain\arm-none-eabi\include\c++\10.2.1\bits\stl_iterator_base_funcs.h ****  * provided that the above copyright notice appear in all copies and
  45:c:\program files\daisytoolchain\arm-none-eabi\include\c++\10.2.1\bits\stl_iterator_base_funcs.h ****  * that both that copyright notice and this permission notice appear
  46:c:\program files\daisytoolchain\arm-none-eabi\include\c++\10.2.1\bits\stl_iterator_base_funcs.h ****  * in supporting documentation.  Silicon Graphics makes no
  47:c:\program files\daisytoolchain\arm-none-eabi\include\c++\10.2.1\bits\stl_iterator_base_funcs.h ****  * representations about the suitability of this software for any
  48:c:\program files\daisytoolchain\arm-none-eabi\include\c++\10.2.1\bits\stl_iterator_base_funcs.h ****  * purpose.  It is provided "as is" without express or implied warranty.
  49:c:\program files\daisytoolchain\arm-none-eabi\include\c++\10.2.1\bits\stl_iterator_base_funcs.h ****  */
  50:c:\program files\daisytoolchain\arm-none-eabi\include\c++\10.2.1\bits\stl_iterator_base_funcs.h **** 
  51:c:\program files\daisytoolchain\arm-none-eabi\include\c++\10.2.1\bits\stl_iterator_base_funcs.h **** /** @file bits/stl_iterator_base_funcs.h
  52:c:\program files\daisytoolchain\arm-none-eabi\include\c++\10.2.1\bits\stl_iterator_base_funcs.h ****  *  This is an internal header file, included by other library headers.
  53:c:\program files\daisytoolchain\arm-none-eabi\include\c++\10.2.1\bits\stl_iterator_base_funcs.h ****  *  Do not attempt to use it directly. @headername{iterator}
  54:c:\program files\daisytoolchain\arm-none-eabi\include\c++\10.2.1\bits\stl_iterator_base_funcs.h ****  *
  55:c:\program files\daisytoolchain\arm-none-eabi\include\c++\10.2.1\bits\stl_iterator_base_funcs.h ****  *  This file contains all of the general iterator-related utility
  56:c:\program files\daisytoolchain\arm-none-eabi\include\c++\10.2.1\bits\stl_iterator_base_funcs.h ****  *  functions, such as distance() and advance().
  57:c:\program files\daisytoolchain\arm-none-eabi\include\c++\10.2.1\bits\stl_iterator_base_funcs.h ****  */
  58:c:\program files\daisytoolchain\arm-none-eabi\include\c++\10.2.1\bits\stl_iterator_base_funcs.h **** 
  59:c:\program files\daisytoolchain\arm-none-eabi\include\c++\10.2.1\bits\stl_iterator_base_funcs.h **** #ifndef _STL_ITERATOR_BASE_FUNCS_H
  60:c:\program files\daisytoolchain\arm-none-eabi\include\c++\10.2.1\bits\stl_iterator_base_funcs.h **** #define _STL_ITERATOR_BASE_FUNCS_H 1
  61:c:\program files\daisytoolchain\arm-none-eabi\include\c++\10.2.1\bits\stl_iterator_base_funcs.h **** 
  62:c:\program files\daisytoolchain\arm-none-eabi\include\c++\10.2.1\bits\stl_iterator_base_funcs.h **** #pragma GCC system_header
  63:c:\program files\daisytoolchain\arm-none-eabi\include\c++\10.2.1\bits\stl_iterator_base_funcs.h **** 
  64:c:\program files\daisytoolchain\arm-none-eabi\include\c++\10.2.1\bits\stl_iterator_base_funcs.h **** #include <bits/concept_check.h>
  65:c:\program files\daisytoolchain\arm-none-eabi\include\c++\10.2.1\bits\stl_iterator_base_funcs.h **** #include <debug/assertions.h>
  66:c:\program files\daisytoolchain\arm-none-eabi\include\c++\10.2.1\bits\stl_iterator_base_funcs.h **** 
  67:c:\program files\daisytoolchain\arm-none-eabi\include\c++\10.2.1\bits\stl_iterator_base_funcs.h **** namespace std _GLIBCXX_VISIBILITY(default)
  68:c:\program files\daisytoolchain\arm-none-eabi\include\c++\10.2.1\bits\stl_iterator_base_funcs.h **** {
  69:c:\program files\daisytoolchain\arm-none-eabi\include\c++\10.2.1\bits\stl_iterator_base_funcs.h **** _GLIBCXX_BEGIN_NAMESPACE_VERSION
  70:c:\program files\daisytoolchain\arm-none-eabi\include\c++\10.2.1\bits\stl_iterator_base_funcs.h **** 
  71:c:\program files\daisytoolchain\arm-none-eabi\include\c++\10.2.1\bits\stl_iterator_base_funcs.h **** _GLIBCXX_BEGIN_NAMESPACE_CONTAINER
  72:c:\program files\daisytoolchain\arm-none-eabi\include\c++\10.2.1\bits\stl_iterator_base_funcs.h ****   // Forward declaration for the overloads of __distance.
  73:c:\program files\daisytoolchain\arm-none-eabi\include\c++\10.2.1\bits\stl_iterator_base_funcs.h ****   template <typename> struct _List_iterator;
  74:c:\program files\daisytoolchain\arm-none-eabi\include\c++\10.2.1\bits\stl_iterator_base_funcs.h ****   template <typename> struct _List_const_iterator;
  75:c:\program files\daisytoolchain\arm-none-eabi\include\c++\10.2.1\bits\stl_iterator_base_funcs.h **** _GLIBCXX_END_NAMESPACE_CONTAINER
  76:c:\program files\daisytoolchain\arm-none-eabi\include\c++\10.2.1\bits\stl_iterator_base_funcs.h **** 
  77:c:\program files\daisytoolchain\arm-none-eabi\include\c++\10.2.1\bits\stl_iterator_base_funcs.h ****   template<typename _InputIterator>
  78:c:\program files\daisytoolchain\arm-none-eabi\include\c++\10.2.1\bits\stl_iterator_base_funcs.h ****     inline _GLIBCXX14_CONSTEXPR
  79:c:\program files\daisytoolchain\arm-none-eabi\include\c++\10.2.1\bits\stl_iterator_base_funcs.h ****     typename iterator_traits<_InputIterator>::difference_type
  80:c:\program files\daisytoolchain\arm-none-eabi\include\c++\10.2.1\bits\stl_iterator_base_funcs.h ****     __distance(_InputIterator __first, _InputIterator __last,
  81:c:\program files\daisytoolchain\arm-none-eabi\include\c++\10.2.1\bits\stl_iterator_base_funcs.h ****                input_iterator_tag)
  82:c:\program files\daisytoolchain\arm-none-eabi\include\c++\10.2.1\bits\stl_iterator_base_funcs.h ****     {
  83:c:\program files\daisytoolchain\arm-none-eabi\include\c++\10.2.1\bits\stl_iterator_base_funcs.h ****       // concept requirements
  84:c:\program files\daisytoolchain\arm-none-eabi\include\c++\10.2.1\bits\stl_iterator_base_funcs.h ****       __glibcxx_function_requires(_InputIteratorConcept<_InputIterator>)
  85:c:\program files\daisytoolchain\arm-none-eabi\include\c++\10.2.1\bits\stl_iterator_base_funcs.h **** 
  86:c:\program files\daisytoolchain\arm-none-eabi\include\c++\10.2.1\bits\stl_iterator_base_funcs.h ****       typename iterator_traits<_InputIterator>::difference_type __n = 0;
  87:c:\program files\daisytoolchain\arm-none-eabi\include\c++\10.2.1\bits\stl_iterator_base_funcs.h ****       while (__first != __last)
  88:c:\program files\daisytoolchain\arm-none-eabi\include\c++\10.2.1\bits\stl_iterator_base_funcs.h **** 	{
  89:c:\program files\daisytoolchain\arm-none-eabi\include\c++\10.2.1\bits\stl_iterator_base_funcs.h **** 	  ++__first;
  90:c:\program files\daisytoolchain\arm-none-eabi\include\c++\10.2.1\bits\stl_iterator_base_funcs.h **** 	  ++__n;
  91:c:\program files\daisytoolchain\arm-none-eabi\include\c++\10.2.1\bits\stl_iterator_base_funcs.h **** 	}
  92:c:\program files\daisytoolchain\arm-none-eabi\include\c++\10.2.1\bits\stl_iterator_base_funcs.h ****       return __n;
  93:c:\program files\daisytoolchain\arm-none-eabi\include\c++\10.2.1\bits\stl_iterator_base_funcs.h ****     }
  94:c:\program files\daisytoolchain\arm-none-eabi\include\c++\10.2.1\bits\stl_iterator_base_funcs.h **** 
  95:c:\program files\daisytoolchain\arm-none-eabi\include\c++\10.2.1\bits\stl_iterator_base_funcs.h ****   template<typename _RandomAccessIterator>
  96:c:\program files\daisytoolchain\arm-none-eabi\include\c++\10.2.1\bits\stl_iterator_base_funcs.h ****     inline _GLIBCXX14_CONSTEXPR
  97:c:\program files\daisytoolchain\arm-none-eabi\include\c++\10.2.1\bits\stl_iterator_base_funcs.h ****     typename iterator_traits<_RandomAccessIterator>::difference_type
  98:c:\program files\daisytoolchain\arm-none-eabi\include\c++\10.2.1\bits\stl_iterator_base_funcs.h ****     __distance(_RandomAccessIterator __first, _RandomAccessIterator __last,
  99:c:\program files\daisytoolchain\arm-none-eabi\include\c++\10.2.1\bits\stl_iterator_base_funcs.h ****                random_access_iterator_tag)
 100:c:\program files\daisytoolchain\arm-none-eabi\include\c++\10.2.1\bits\stl_iterator_base_funcs.h ****     {
ARM GAS  C:\Users\fv-19\AppData\Local\Temp\ccD6R0Rc.s 			page 42


 101:c:\program files\daisytoolchain\arm-none-eabi\include\c++\10.2.1\bits\stl_iterator_base_funcs.h ****       // concept requirements
 102:c:\program files\daisytoolchain\arm-none-eabi\include\c++\10.2.1\bits\stl_iterator_base_funcs.h ****       __glibcxx_function_requires(_RandomAccessIteratorConcept<
 103:c:\program files\daisytoolchain\arm-none-eabi\include\c++\10.2.1\bits\stl_iterator_base_funcs.h **** 				  _RandomAccessIterator>)
 104:c:\program files\daisytoolchain\arm-none-eabi\include\c++\10.2.1\bits\stl_iterator_base_funcs.h ****       return __last - __first;
 105:c:\program files\daisytoolchain\arm-none-eabi\include\c++\10.2.1\bits\stl_iterator_base_funcs.h ****     }
 106:c:\program files\daisytoolchain\arm-none-eabi\include\c++\10.2.1\bits\stl_iterator_base_funcs.h **** 
 107:c:\program files\daisytoolchain\arm-none-eabi\include\c++\10.2.1\bits\stl_iterator_base_funcs.h **** #if _GLIBCXX_USE_CXX11_ABI
 108:c:\program files\daisytoolchain\arm-none-eabi\include\c++\10.2.1\bits\stl_iterator_base_funcs.h ****   // Forward declaration because of the qualified call in distance.
 109:c:\program files\daisytoolchain\arm-none-eabi\include\c++\10.2.1\bits\stl_iterator_base_funcs.h ****   template<typename _Tp>
 110:c:\program files\daisytoolchain\arm-none-eabi\include\c++\10.2.1\bits\stl_iterator_base_funcs.h ****     ptrdiff_t
 111:c:\program files\daisytoolchain\arm-none-eabi\include\c++\10.2.1\bits\stl_iterator_base_funcs.h ****     __distance(_GLIBCXX_STD_C::_List_iterator<_Tp>,
 112:c:\program files\daisytoolchain\arm-none-eabi\include\c++\10.2.1\bits\stl_iterator_base_funcs.h **** 	       _GLIBCXX_STD_C::_List_iterator<_Tp>,
 113:c:\program files\daisytoolchain\arm-none-eabi\include\c++\10.2.1\bits\stl_iterator_base_funcs.h **** 	       input_iterator_tag);
 114:c:\program files\daisytoolchain\arm-none-eabi\include\c++\10.2.1\bits\stl_iterator_base_funcs.h **** 
 115:c:\program files\daisytoolchain\arm-none-eabi\include\c++\10.2.1\bits\stl_iterator_base_funcs.h ****   template<typename _Tp>
 116:c:\program files\daisytoolchain\arm-none-eabi\include\c++\10.2.1\bits\stl_iterator_base_funcs.h ****     ptrdiff_t
 117:c:\program files\daisytoolchain\arm-none-eabi\include\c++\10.2.1\bits\stl_iterator_base_funcs.h ****     __distance(_GLIBCXX_STD_C::_List_const_iterator<_Tp>,
 118:c:\program files\daisytoolchain\arm-none-eabi\include\c++\10.2.1\bits\stl_iterator_base_funcs.h **** 	       _GLIBCXX_STD_C::_List_const_iterator<_Tp>,
 119:c:\program files\daisytoolchain\arm-none-eabi\include\c++\10.2.1\bits\stl_iterator_base_funcs.h **** 	       input_iterator_tag);
 120:c:\program files\daisytoolchain\arm-none-eabi\include\c++\10.2.1\bits\stl_iterator_base_funcs.h **** #endif
 121:c:\program files\daisytoolchain\arm-none-eabi\include\c++\10.2.1\bits\stl_iterator_base_funcs.h **** 
 122:c:\program files\daisytoolchain\arm-none-eabi\include\c++\10.2.1\bits\stl_iterator_base_funcs.h ****   /**
 123:c:\program files\daisytoolchain\arm-none-eabi\include\c++\10.2.1\bits\stl_iterator_base_funcs.h ****    *  @brief A generalization of pointer arithmetic.
 124:c:\program files\daisytoolchain\arm-none-eabi\include\c++\10.2.1\bits\stl_iterator_base_funcs.h ****    *  @param  __first  An input iterator.
 125:c:\program files\daisytoolchain\arm-none-eabi\include\c++\10.2.1\bits\stl_iterator_base_funcs.h ****    *  @param  __last  An input iterator.
 126:c:\program files\daisytoolchain\arm-none-eabi\include\c++\10.2.1\bits\stl_iterator_base_funcs.h ****    *  @return  The distance between them.
 127:c:\program files\daisytoolchain\arm-none-eabi\include\c++\10.2.1\bits\stl_iterator_base_funcs.h ****    *
 128:c:\program files\daisytoolchain\arm-none-eabi\include\c++\10.2.1\bits\stl_iterator_base_funcs.h ****    *  Returns @c n such that __first + n == __last.  This requires
 129:c:\program files\daisytoolchain\arm-none-eabi\include\c++\10.2.1\bits\stl_iterator_base_funcs.h ****    *  that @p __last must be reachable from @p __first.  Note that @c
 130:c:\program files\daisytoolchain\arm-none-eabi\include\c++\10.2.1\bits\stl_iterator_base_funcs.h ****    *  n may be negative.
 131:c:\program files\daisytoolchain\arm-none-eabi\include\c++\10.2.1\bits\stl_iterator_base_funcs.h ****    *
 132:c:\program files\daisytoolchain\arm-none-eabi\include\c++\10.2.1\bits\stl_iterator_base_funcs.h ****    *  For random access iterators, this uses their @c + and @c - operations
 133:c:\program files\daisytoolchain\arm-none-eabi\include\c++\10.2.1\bits\stl_iterator_base_funcs.h ****    *  and are constant time.  For other %iterator classes they are linear time.
 134:c:\program files\daisytoolchain\arm-none-eabi\include\c++\10.2.1\bits\stl_iterator_base_funcs.h ****   */
 135:c:\program files\daisytoolchain\arm-none-eabi\include\c++\10.2.1\bits\stl_iterator_base_funcs.h ****   template<typename _InputIterator>
 136:c:\program files\daisytoolchain\arm-none-eabi\include\c++\10.2.1\bits\stl_iterator_base_funcs.h ****     inline _GLIBCXX17_CONSTEXPR
 137:c:\program files\daisytoolchain\arm-none-eabi\include\c++\10.2.1\bits\stl_iterator_base_funcs.h ****     typename iterator_traits<_InputIterator>::difference_type
 138:c:\program files\daisytoolchain\arm-none-eabi\include\c++\10.2.1\bits\stl_iterator_base_funcs.h ****     distance(_InputIterator __first, _InputIterator __last)
 384              		.loc 15 138 5 is_stmt 1 view .LVU72
 385              	.LBB1547:
 386              	.LBI1547:
  98:c:\program files\daisytoolchain\arm-none-eabi\include\c++\10.2.1\bits\stl_iterator_base_funcs.h ****                random_access_iterator_tag)
 387              		.loc 15 98 5 view .LVU73
 388              	.LBB1548:
 104:c:\program files\daisytoolchain\arm-none-eabi\include\c++\10.2.1\bits\stl_iterator_base_funcs.h ****     }
 389              		.loc 15 104 23 is_stmt 0 view .LVU74
 390 000c 941B     		subs	r4, r2, r6
 391              	.LBE1548:
 392              	.LBE1547:
 393              	.LBE1546:
 212:c:\program files\daisytoolchain\arm-none-eabi\include\c++\10.2.1\bits\basic_string.tcc **** 	  std::__throw_logic_error(__N("basic_string::"
 213:c:\program files\daisytoolchain\arm-none-eabi\include\c++\10.2.1\bits\basic_string.tcc **** 				       "_M_construct null not valid"));
 214:c:\program files\daisytoolchain\arm-none-eabi\include\c++\10.2.1\bits\basic_string.tcc **** 
 215:c:\program files\daisytoolchain\arm-none-eabi\include\c++\10.2.1\bits\basic_string.tcc **** 	size_type __dnew = static_cast<size_type>(std::distance(__beg, __end));
 216:c:\program files\daisytoolchain\arm-none-eabi\include\c++\10.2.1\bits\basic_string.tcc **** 
 217:c:\program files\daisytoolchain\arm-none-eabi\include\c++\10.2.1\bits\basic_string.tcc **** 	if (__dnew > size_type(_S_local_capacity))
 394              		.loc 14 217 2 view .LVU75
ARM GAS  C:\Users\fv-19\AppData\Local\Temp\ccD6R0Rc.s 			page 43


 395 000e 0F2C     		cmp	r4, #15
 215:c:\program files\daisytoolchain\arm-none-eabi\include\c++\10.2.1\bits\basic_string.tcc **** 
 396              		.loc 14 215 12 view .LVU76
 397 0010 0194     		str	r4, [sp, #4]
 398              		.loc 14 217 2 view .LVU77
 399 0012 11D8     		bhi	.L41
 400              	.LVL19:
 401              	.LBB1549:
 402              	.LBI1549:
 403              		.file 16 "c:\\program files\\daisytoolchain\\arm-none-eabi\\include\\c++\\10.2.1\\bits\\basic_stri
   1:c:\program files\daisytoolchain\arm-none-eabi\include\c++\10.2.1\bits\basic_string.h **** // Components for manipulating sequences of characters -*- C++ -*-
   2:c:\program files\daisytoolchain\arm-none-eabi\include\c++\10.2.1\bits\basic_string.h **** 
   3:c:\program files\daisytoolchain\arm-none-eabi\include\c++\10.2.1\bits\basic_string.h **** // Copyright (C) 1997-2020 Free Software Foundation, Inc.
   4:c:\program files\daisytoolchain\arm-none-eabi\include\c++\10.2.1\bits\basic_string.h **** //
   5:c:\program files\daisytoolchain\arm-none-eabi\include\c++\10.2.1\bits\basic_string.h **** // This file is part of the GNU ISO C++ Library.  This library is free
   6:c:\program files\daisytoolchain\arm-none-eabi\include\c++\10.2.1\bits\basic_string.h **** // software; you can redistribute it and/or modify it under the
   7:c:\program files\daisytoolchain\arm-none-eabi\include\c++\10.2.1\bits\basic_string.h **** // terms of the GNU General Public License as published by the
   8:c:\program files\daisytoolchain\arm-none-eabi\include\c++\10.2.1\bits\basic_string.h **** // Free Software Foundation; either version 3, or (at your option)
   9:c:\program files\daisytoolchain\arm-none-eabi\include\c++\10.2.1\bits\basic_string.h **** // any later version.
  10:c:\program files\daisytoolchain\arm-none-eabi\include\c++\10.2.1\bits\basic_string.h **** 
  11:c:\program files\daisytoolchain\arm-none-eabi\include\c++\10.2.1\bits\basic_string.h **** // This library is distributed in the hope that it will be useful,
  12:c:\program files\daisytoolchain\arm-none-eabi\include\c++\10.2.1\bits\basic_string.h **** // but WITHOUT ANY WARRANTY; without even the implied warranty of
  13:c:\program files\daisytoolchain\arm-none-eabi\include\c++\10.2.1\bits\basic_string.h **** // MERCHANTABILITY or FITNESS FOR A PARTICULAR PURPOSE.  See the
  14:c:\program files\daisytoolchain\arm-none-eabi\include\c++\10.2.1\bits\basic_string.h **** // GNU General Public License for more details.
  15:c:\program files\daisytoolchain\arm-none-eabi\include\c++\10.2.1\bits\basic_string.h **** 
  16:c:\program files\daisytoolchain\arm-none-eabi\include\c++\10.2.1\bits\basic_string.h **** // Under Section 7 of GPL version 3, you are granted additional
  17:c:\program files\daisytoolchain\arm-none-eabi\include\c++\10.2.1\bits\basic_string.h **** // permissions described in the GCC Runtime Library Exception, version
  18:c:\program files\daisytoolchain\arm-none-eabi\include\c++\10.2.1\bits\basic_string.h **** // 3.1, as published by the Free Software Foundation.
  19:c:\program files\daisytoolchain\arm-none-eabi\include\c++\10.2.1\bits\basic_string.h **** 
  20:c:\program files\daisytoolchain\arm-none-eabi\include\c++\10.2.1\bits\basic_string.h **** // You should have received a copy of the GNU General Public License and
  21:c:\program files\daisytoolchain\arm-none-eabi\include\c++\10.2.1\bits\basic_string.h **** // a copy of the GCC Runtime Library Exception along with this program;
  22:c:\program files\daisytoolchain\arm-none-eabi\include\c++\10.2.1\bits\basic_string.h **** // see the files COPYING3 and COPYING.RUNTIME respectively.  If not, see
  23:c:\program files\daisytoolchain\arm-none-eabi\include\c++\10.2.1\bits\basic_string.h **** // <http://www.gnu.org/licenses/>.
  24:c:\program files\daisytoolchain\arm-none-eabi\include\c++\10.2.1\bits\basic_string.h **** 
  25:c:\program files\daisytoolchain\arm-none-eabi\include\c++\10.2.1\bits\basic_string.h **** /** @file bits/basic_string.h
  26:c:\program files\daisytoolchain\arm-none-eabi\include\c++\10.2.1\bits\basic_string.h ****  *  This is an internal header file, included by other library headers.
  27:c:\program files\daisytoolchain\arm-none-eabi\include\c++\10.2.1\bits\basic_string.h ****  *  Do not attempt to use it directly. @headername{string}
  28:c:\program files\daisytoolchain\arm-none-eabi\include\c++\10.2.1\bits\basic_string.h ****  */
  29:c:\program files\daisytoolchain\arm-none-eabi\include\c++\10.2.1\bits\basic_string.h **** 
  30:c:\program files\daisytoolchain\arm-none-eabi\include\c++\10.2.1\bits\basic_string.h **** //
  31:c:\program files\daisytoolchain\arm-none-eabi\include\c++\10.2.1\bits\basic_string.h **** // ISO C++ 14882: 21 Strings library
  32:c:\program files\daisytoolchain\arm-none-eabi\include\c++\10.2.1\bits\basic_string.h **** //
  33:c:\program files\daisytoolchain\arm-none-eabi\include\c++\10.2.1\bits\basic_string.h **** 
  34:c:\program files\daisytoolchain\arm-none-eabi\include\c++\10.2.1\bits\basic_string.h **** #ifndef _BASIC_STRING_H
  35:c:\program files\daisytoolchain\arm-none-eabi\include\c++\10.2.1\bits\basic_string.h **** #define _BASIC_STRING_H 1
  36:c:\program files\daisytoolchain\arm-none-eabi\include\c++\10.2.1\bits\basic_string.h **** 
  37:c:\program files\daisytoolchain\arm-none-eabi\include\c++\10.2.1\bits\basic_string.h **** #pragma GCC system_header
  38:c:\program files\daisytoolchain\arm-none-eabi\include\c++\10.2.1\bits\basic_string.h **** 
  39:c:\program files\daisytoolchain\arm-none-eabi\include\c++\10.2.1\bits\basic_string.h **** #include <ext/atomicity.h>
  40:c:\program files\daisytoolchain\arm-none-eabi\include\c++\10.2.1\bits\basic_string.h **** #include <ext/alloc_traits.h>
  41:c:\program files\daisytoolchain\arm-none-eabi\include\c++\10.2.1\bits\basic_string.h **** #include <debug/debug.h>
  42:c:\program files\daisytoolchain\arm-none-eabi\include\c++\10.2.1\bits\basic_string.h **** 
  43:c:\program files\daisytoolchain\arm-none-eabi\include\c++\10.2.1\bits\basic_string.h **** #if __cplusplus >= 201103L
  44:c:\program files\daisytoolchain\arm-none-eabi\include\c++\10.2.1\bits\basic_string.h **** #include <initializer_list>
  45:c:\program files\daisytoolchain\arm-none-eabi\include\c++\10.2.1\bits\basic_string.h **** #endif
  46:c:\program files\daisytoolchain\arm-none-eabi\include\c++\10.2.1\bits\basic_string.h **** 
  47:c:\program files\daisytoolchain\arm-none-eabi\include\c++\10.2.1\bits\basic_string.h **** #if __cplusplus >= 201703L
ARM GAS  C:\Users\fv-19\AppData\Local\Temp\ccD6R0Rc.s 			page 44


  48:c:\program files\daisytoolchain\arm-none-eabi\include\c++\10.2.1\bits\basic_string.h **** # include <string_view>
  49:c:\program files\daisytoolchain\arm-none-eabi\include\c++\10.2.1\bits\basic_string.h **** #endif
  50:c:\program files\daisytoolchain\arm-none-eabi\include\c++\10.2.1\bits\basic_string.h **** 
  51:c:\program files\daisytoolchain\arm-none-eabi\include\c++\10.2.1\bits\basic_string.h **** 
  52:c:\program files\daisytoolchain\arm-none-eabi\include\c++\10.2.1\bits\basic_string.h **** namespace std _GLIBCXX_VISIBILITY(default)
  53:c:\program files\daisytoolchain\arm-none-eabi\include\c++\10.2.1\bits\basic_string.h **** {
  54:c:\program files\daisytoolchain\arm-none-eabi\include\c++\10.2.1\bits\basic_string.h **** _GLIBCXX_BEGIN_NAMESPACE_VERSION
  55:c:\program files\daisytoolchain\arm-none-eabi\include\c++\10.2.1\bits\basic_string.h **** 
  56:c:\program files\daisytoolchain\arm-none-eabi\include\c++\10.2.1\bits\basic_string.h **** #if _GLIBCXX_USE_CXX11_ABI
  57:c:\program files\daisytoolchain\arm-none-eabi\include\c++\10.2.1\bits\basic_string.h **** _GLIBCXX_BEGIN_NAMESPACE_CXX11
  58:c:\program files\daisytoolchain\arm-none-eabi\include\c++\10.2.1\bits\basic_string.h ****   /**
  59:c:\program files\daisytoolchain\arm-none-eabi\include\c++\10.2.1\bits\basic_string.h ****    *  @class basic_string basic_string.h <string>
  60:c:\program files\daisytoolchain\arm-none-eabi\include\c++\10.2.1\bits\basic_string.h ****    *  @brief  Managing sequences of characters and character-like objects.
  61:c:\program files\daisytoolchain\arm-none-eabi\include\c++\10.2.1\bits\basic_string.h ****    *
  62:c:\program files\daisytoolchain\arm-none-eabi\include\c++\10.2.1\bits\basic_string.h ****    *  @ingroup strings
  63:c:\program files\daisytoolchain\arm-none-eabi\include\c++\10.2.1\bits\basic_string.h ****    *  @ingroup sequences
  64:c:\program files\daisytoolchain\arm-none-eabi\include\c++\10.2.1\bits\basic_string.h ****    *
  65:c:\program files\daisytoolchain\arm-none-eabi\include\c++\10.2.1\bits\basic_string.h ****    *  @tparam _CharT  Type of character
  66:c:\program files\daisytoolchain\arm-none-eabi\include\c++\10.2.1\bits\basic_string.h ****    *  @tparam _Traits  Traits for character type, defaults to
  67:c:\program files\daisytoolchain\arm-none-eabi\include\c++\10.2.1\bits\basic_string.h ****    *                   char_traits<_CharT>.
  68:c:\program files\daisytoolchain\arm-none-eabi\include\c++\10.2.1\bits\basic_string.h ****    *  @tparam _Alloc  Allocator type, defaults to allocator<_CharT>.
  69:c:\program files\daisytoolchain\arm-none-eabi\include\c++\10.2.1\bits\basic_string.h ****    *
  70:c:\program files\daisytoolchain\arm-none-eabi\include\c++\10.2.1\bits\basic_string.h ****    *  Meets the requirements of a <a href="tables.html#65">container</a>, a
  71:c:\program files\daisytoolchain\arm-none-eabi\include\c++\10.2.1\bits\basic_string.h ****    *  <a href="tables.html#66">reversible container</a>, and a
  72:c:\program files\daisytoolchain\arm-none-eabi\include\c++\10.2.1\bits\basic_string.h ****    *  <a href="tables.html#67">sequence</a>.  Of the
  73:c:\program files\daisytoolchain\arm-none-eabi\include\c++\10.2.1\bits\basic_string.h ****    *  <a href="tables.html#68">optional sequence requirements</a>, only
  74:c:\program files\daisytoolchain\arm-none-eabi\include\c++\10.2.1\bits\basic_string.h ****    *  @c push_back, @c at, and @c %array access are supported.
  75:c:\program files\daisytoolchain\arm-none-eabi\include\c++\10.2.1\bits\basic_string.h ****    */
  76:c:\program files\daisytoolchain\arm-none-eabi\include\c++\10.2.1\bits\basic_string.h ****   template<typename _CharT, typename _Traits, typename _Alloc>
  77:c:\program files\daisytoolchain\arm-none-eabi\include\c++\10.2.1\bits\basic_string.h ****     class basic_string
  78:c:\program files\daisytoolchain\arm-none-eabi\include\c++\10.2.1\bits\basic_string.h ****     {
  79:c:\program files\daisytoolchain\arm-none-eabi\include\c++\10.2.1\bits\basic_string.h ****       typedef typename __gnu_cxx::__alloc_traits<_Alloc>::template
  80:c:\program files\daisytoolchain\arm-none-eabi\include\c++\10.2.1\bits\basic_string.h **** 	rebind<_CharT>::other _Char_alloc_type;
  81:c:\program files\daisytoolchain\arm-none-eabi\include\c++\10.2.1\bits\basic_string.h ****       typedef __gnu_cxx::__alloc_traits<_Char_alloc_type> _Alloc_traits;
  82:c:\program files\daisytoolchain\arm-none-eabi\include\c++\10.2.1\bits\basic_string.h **** 
  83:c:\program files\daisytoolchain\arm-none-eabi\include\c++\10.2.1\bits\basic_string.h ****       // Types:
  84:c:\program files\daisytoolchain\arm-none-eabi\include\c++\10.2.1\bits\basic_string.h ****     public:
  85:c:\program files\daisytoolchain\arm-none-eabi\include\c++\10.2.1\bits\basic_string.h ****       typedef _Traits					traits_type;
  86:c:\program files\daisytoolchain\arm-none-eabi\include\c++\10.2.1\bits\basic_string.h ****       typedef typename _Traits::char_type		value_type;
  87:c:\program files\daisytoolchain\arm-none-eabi\include\c++\10.2.1\bits\basic_string.h ****       typedef _Char_alloc_type				allocator_type;
  88:c:\program files\daisytoolchain\arm-none-eabi\include\c++\10.2.1\bits\basic_string.h ****       typedef typename _Alloc_traits::size_type		size_type;
  89:c:\program files\daisytoolchain\arm-none-eabi\include\c++\10.2.1\bits\basic_string.h ****       typedef typename _Alloc_traits::difference_type	difference_type;
  90:c:\program files\daisytoolchain\arm-none-eabi\include\c++\10.2.1\bits\basic_string.h ****       typedef typename _Alloc_traits::reference		reference;
  91:c:\program files\daisytoolchain\arm-none-eabi\include\c++\10.2.1\bits\basic_string.h ****       typedef typename _Alloc_traits::const_reference	const_reference;
  92:c:\program files\daisytoolchain\arm-none-eabi\include\c++\10.2.1\bits\basic_string.h ****       typedef typename _Alloc_traits::pointer		pointer;
  93:c:\program files\daisytoolchain\arm-none-eabi\include\c++\10.2.1\bits\basic_string.h ****       typedef typename _Alloc_traits::const_pointer	const_pointer;
  94:c:\program files\daisytoolchain\arm-none-eabi\include\c++\10.2.1\bits\basic_string.h ****       typedef __gnu_cxx::__normal_iterator<pointer, basic_string>  iterator;
  95:c:\program files\daisytoolchain\arm-none-eabi\include\c++\10.2.1\bits\basic_string.h ****       typedef __gnu_cxx::__normal_iterator<const_pointer, basic_string>
  96:c:\program files\daisytoolchain\arm-none-eabi\include\c++\10.2.1\bits\basic_string.h **** 							const_iterator;
  97:c:\program files\daisytoolchain\arm-none-eabi\include\c++\10.2.1\bits\basic_string.h ****       typedef std::reverse_iterator<const_iterator>	const_reverse_iterator;
  98:c:\program files\daisytoolchain\arm-none-eabi\include\c++\10.2.1\bits\basic_string.h ****       typedef std::reverse_iterator<iterator>		reverse_iterator;
  99:c:\program files\daisytoolchain\arm-none-eabi\include\c++\10.2.1\bits\basic_string.h **** 
 100:c:\program files\daisytoolchain\arm-none-eabi\include\c++\10.2.1\bits\basic_string.h ****       ///  Value returned by various member functions when they fail.
 101:c:\program files\daisytoolchain\arm-none-eabi\include\c++\10.2.1\bits\basic_string.h ****       static const size_type	npos = static_cast<size_type>(-1);
 102:c:\program files\daisytoolchain\arm-none-eabi\include\c++\10.2.1\bits\basic_string.h **** 
 103:c:\program files\daisytoolchain\arm-none-eabi\include\c++\10.2.1\bits\basic_string.h ****     protected:
 104:c:\program files\daisytoolchain\arm-none-eabi\include\c++\10.2.1\bits\basic_string.h ****       // type used for positions in insert, erase etc.
ARM GAS  C:\Users\fv-19\AppData\Local\Temp\ccD6R0Rc.s 			page 45


 105:c:\program files\daisytoolchain\arm-none-eabi\include\c++\10.2.1\bits\basic_string.h **** #if __cplusplus < 201103L
 106:c:\program files\daisytoolchain\arm-none-eabi\include\c++\10.2.1\bits\basic_string.h ****       typedef iterator __const_iterator;
 107:c:\program files\daisytoolchain\arm-none-eabi\include\c++\10.2.1\bits\basic_string.h **** #else
 108:c:\program files\daisytoolchain\arm-none-eabi\include\c++\10.2.1\bits\basic_string.h ****       typedef const_iterator __const_iterator;
 109:c:\program files\daisytoolchain\arm-none-eabi\include\c++\10.2.1\bits\basic_string.h **** #endif
 110:c:\program files\daisytoolchain\arm-none-eabi\include\c++\10.2.1\bits\basic_string.h **** 
 111:c:\program files\daisytoolchain\arm-none-eabi\include\c++\10.2.1\bits\basic_string.h ****     private:
 112:c:\program files\daisytoolchain\arm-none-eabi\include\c++\10.2.1\bits\basic_string.h **** #if __cplusplus >= 201703L
